(dp0
S'laila_doe'
p1
(dp2
S'strokes'
p3
(lp4
(iallograph.stroke
Stroke
p5
(dp6
S'y'
p7
(lp8
F0.04168485477566719
aF0.04223836213350296
aF0.04500589147210121
aF0.04777342081069946
aF0.04998744651675224
aF0.051647964864969254
aF0.056076012551784515
aF0.059397049248218536
aF0.06161107122898102
aF0.06216457858681679
aF0.0638250932097435
aF0.06437860429286957
aF0.06603912264108658
aF0.06659262627363205
aF0.06769964098930359
aF0.06880664825439453
aF0.0693601593375206
aF0.06991366297006607
aF0.07046717405319214
aF0.07102067768573761
aF0.07102067768573761
aF0.07102067768573761
aF0.07102067768573761
aF0.07102067768573761
aF0.07102067768573761
aF0.07102067768573761
aF0.07102067768573761
aF0.07102067768573761
aF0.07102067768573761
aF0.07102067768573761
aF0.07046717405319214
aF0.0693601593375206
aF0.06880664825439453
aF0.06880664825439453
aF0.053861990571022034
aF0.053861990571022034
aF0.053861990571022034
aF0.053861990571022034
aF0.053861990571022034
aF0.053861990571022034
aF0.053861990571022034
aF0.053861990571022034
aF0.053861990571022034
aF0.053861990571022034
aF0.053861990571022034
aF0.053861990571022034
aF0.053861990571022034
aF0.053861990571022034
aF0.053861990571022034
aF0.053861990571022034
aF0.053861990571022034
aF0.053861990571022034
aF0.053861990571022034
aF0.053861990571022034
asS'x'
p9
(lp10
F0.060414012521505356
aF0.060414012521505356
aF0.060414012521505356
aF0.060414012521505356
aF0.060414012521505356
aF0.060414012521505356
aF0.059860508888959885
aF0.059860508888959885
aF0.059860508888959885
aF0.059860508888959885
aF0.059860508888959885
aF0.059860508888959885
aF0.059860508888959885
aF0.059860508888959885
aF0.059860508888959885
aF0.059860508888959885
aF0.059860508888959885
aF0.059860508888959885
aF0.059860508888959885
aF0.060414012521505356
aF0.060967519879341125
aF0.0615210235118866
aF0.062074534595012665
aF0.06262803822755814
aF0.06428855657577515
aF0.06484206020832062
aF0.06650257855653763
aF0.0670560821890831
aF0.06760959327220917
aF0.06816309690475464
aF0.06982361525297165
aF0.07093062996864319
aF0.07093062996864319
aF0.07093062996864319
aF0.05487895384430885
aF0.055985964834690094
aF0.056539472192525864
aF0.057092975825071335
aF0.058753494173288345
aF0.059307001531124115
aF0.059860508888959885
aF0.0615210235118866
aF0.06262803822755814
aF0.06373504549264908
aF0.06428855657577515
aF0.06484206020832062
aF0.06539556384086609
aF0.06650257855653763
aF0.0670560821890831
aF0.06760959327220917
aF0.06816309690475464
aF0.06927011162042618
aF0.06982361525297165
aF0.06982361525297165
asS'len'
p11
I54
sba(iallograph.stroke
Stroke
p12
(dp13
g7
(lp14
F0.0693601593375206
aF0.06991366297006607
aF0.07046717405319214
aF0.07212769240140915
aF0.07268119603395462
aF0.07434171438217163
aF0.07544872909784317
aF0.07655573636293411
aF0.07766275107860565
aF0.07821625471115112
aF0.07876976579427719
aF0.07987677305936813
aF0.08043026924133301
aF0.08098378777503967
aF0.08153729140758514
aF0.08264430612325668
aF0.08319780975580215
aF0.08319780975580215
aF0.08319780975580215
aF0.08264430612325668
aF0.08209078758955002
aF0.08153729140758514
aF0.08098378777503967
aF0.08043026924133301
aF0.07987677305936813
aF0.07932326942682266
aF0.07932326942682266
aF0.07876976579427719
aF0.07821625471115112
aF0.07821625471115112
aF0.06548561155796051
aF0.06548561155796051
asg9
(lp15
F0.09085684269666672
aF0.09085684269666672
aF0.09085684269666672
aF0.09085684269666672
aF0.09085684269666672
aF0.09085684269666672
aF0.09085684269666672
aF0.09030334651470184
aF0.09030334651470184
aF0.09030334651470184
aF0.09030334651470184
aF0.09030334651470184
aF0.09030334651470184
aF0.09030334651470184
aF0.09030334651470184
aF0.09030334651470184
aF0.09085684269666672
aF0.09141035377979279
aF0.09251736104488373
aF0.0930708721280098
aF0.09362438321113586
aF0.0947313904762268
aF0.0947313904762268
aF0.09528490155935287
aF0.09583839774131775
aF0.09639190882444382
aF0.09694541990756989
aF0.09805241972208023
aF0.0986059382557869
aF0.0986059382557869
aF0.09196386486291885
aF0.09196386486291885
asg11
I32
sba(iallograph.stroke
Stroke
p16
(dp17
g7
(lp18
F0.08817936480045319
aF0.08762585371732712
aF0.08651884645223618
aF0.08485832810401917
aF0.08319780975580215
aF0.08264430612325668
aF0.08209078758955002
aF0.07987677305936813
aF0.07932326942682266
aF0.07821625471115112
aF0.07766275107860565
aF0.07710924744606018
aF0.07655573636293411
aF0.07710924744606018
aF0.07821625471115112
aF0.07987677305936813
aF0.08098378777503967
aF0.08375130593776703
aF0.0859653502702713
aF0.08817936480045319
aF0.0898398831486702
aF0.09205390512943268
aF0.09371442347764969
aF0.0953749418258667
aF0.09758896380662918
aF0.09924948960542679
aF0.10035649687051773
aF0.10201701521873474
aF0.10312402248382568
aF0.1047845408320427
aF0.10589156299829483
aF0.1064450591802597
aF0.10755208134651184
aF0.10865908861160278
aF0.10921259969472885
aF0.11087311804294586
aF0.11142661422491074
aF0.1119801253080368
aF0.11308713257312775
aF0.11253363639116287
aF0.11087311804294586
aF0.10810557752847672
aF0.10423104465007782
aF0.10201701521873474
aF0.09980299323797226
aF0.09814247488975525
aF0.09703546017408371
aF0.09482143819332123
aF0.09371442347764969
aF0.09205390512943268
aF0.09094689041376114
aF0.0898398831486702
aF0.08817936480045319
aF0.08707235008478165
aF0.0859653502702713
aF0.08541183173656464
aF0.08430483192205429
aF0.08319780975580215
aF0.08153729140758514
aF0.08098378777503967
aF0.08043026924133301
aF0.07987677305936813
aF0.07932326942682266
aF0.07876976579427719
aF0.07821625471115112
aF0.07766275107860565
aF0.07821625471115112
aF0.07876976579427719
aF0.08043026924133301
aF0.08153729140758514
aF0.08375130593776703
aF0.08430483192205429
aF0.0859653502702713
aF0.08762585371732712
aF0.08873286843299866
aF0.08928637206554413
aF0.0898398831486702
aF0.09094689041376114
aF0.09094689041376114
aF0.09094689041376114
aF0.09094689041376114
aF0.0898398831486702
aF0.08873286843299866
aF0.08762585371732712
aF0.08651884645223618
aF0.08541183173656464
aF0.08541183173656464
asg9
(lp19
F0.11189007759094238
aF0.11244358867406845
aF0.11299708485603333
aF0.11410410702228546
aF0.11465760320425034
aF0.11465760320425034
aF0.11465760320425034
aF0.1152111142873764
aF0.1152111142873764
aF0.1152111142873764
aF0.1152111142873764
aF0.1152111142873764
aF0.1152111142873764
aF0.1152111142873764
aF0.1152111142873764
aF0.1152111142873764
aF0.1152111142873764
aF0.1152111142873764
aF0.11465760320425034
aF0.11410410702228546
aF0.11410410702228546
aF0.11410410702228546
aF0.11410410702228546
aF0.11410410702228546
aF0.11410410702228546
aF0.11410410702228546
aF0.11410410702228546
aF0.11410410702228546
aF0.11410410702228546
aF0.11410410702228546
aF0.11410410702228546
aF0.11410410702228546
aF0.11410410702228546
aF0.11410410702228546
aF0.11410410702228546
aF0.11410410702228546
aF0.11410410702228546
aF0.11410410702228546
aF0.11410410702228546
aF0.11410410702228546
aF0.11410410702228546
aF0.11410410702228546
aF0.11465760320425034
aF0.11465760320425034
aF0.1152111142873764
aF0.1152111142873764
aF0.1152111142873764
aF0.11576462537050247
aF0.11576462537050247
aF0.11576462537050247
aF0.11576462537050247
aF0.11576462537050247
aF0.11631812155246735
aF0.11687163263559341
aF0.11742514371871948
aF0.11742514371871948
aF0.11742514371871948
aF0.11797863990068436
aF0.11853215098381042
aF0.11853215098381042
aF0.11908566206693649
aF0.11963915824890137
aF0.12019266933202744
aF0.1207461804151535
aF0.12129967659711838
aF0.12185318768024445
aF0.12240669876337051
aF0.12296019494533539
aF0.12351369857788086
aF0.12406721711158752
aF0.1246207132935524
aF0.12517420947551727
aF0.12572772800922394
aF0.12572772800922394
aF0.1262812316417694
aF0.1262812316417694
aF0.1262812316417694
aF0.12683473527431488
aF0.12738825380802155
aF0.12794175744056702
aF0.12960226833820343
aF0.1318162977695465
aF0.13292330503463745
aF0.13458383083343506
aF0.135690838098526
aF0.13679784536361694
aF0.13679784536361694
asg11
I87
sba(iallograph.stroke
Stroke
p20
(dp21
g7
(lp22
F0.06880664825439453
aF0.06825314462184906
aF0.06825314462184906
aF0.06714612990617752
aF0.06603912264108658
aF0.0638250932097435
aF0.06161107122898102
aF0.06050406023859978
aF0.058843545615673065
aF0.057183027267456055
aF0.055522508919239044
aF0.053861990571022034
aF0.052754975855350494
aF0.051094457507133484
aF0.04998744651675224
aF0.048880431801080704
aF0.04777342081069946
aF0.04721991345286369
aF0.04666640982031822
aF0.04555940255522728
aF0.04500589147210121
aF0.04445238411426544
aF0.04445238411426544
aF0.04555940255522728
aF0.04721991345286369
aF0.048880431801080704
aF0.051094457507133484
aF0.053861990571022034
aF0.056076012551784515
aF0.057736530900001526
aF0.06050406023859978
aF0.06271808594465256
aF0.06548561155796051
aF0.0693601593375206
aF0.07102067768573761
aF0.07323469966650009
aF0.07544872909784317
aF0.07766275107860565
aF0.07932326942682266
aF0.08153729140758514
aF0.08319780975580215
aF0.08430483192205429
aF0.08762585371732712
aF0.08873286843299866
aF0.09039338678121567
aF0.09260740876197815
aF0.09426792711019516
aF0.09482143819332123
aF0.09703546017408371
aF0.09814247488975525
aF0.09980299323797226
aF0.1009100079536438
aF0.10257052630186081
aF0.10367753356695175
aF0.1047845408320427
aF0.10589156299829483
aF0.10755208134651184
aF0.10810557752847672
aF0.10921259969472885
aF0.10976609587669373
aF0.11142661422491074
aF0.1119801253080368
aF0.11364064365625381
aF0.11419415473937988
aF0.11474765092134476
aF0.11530116200447083
aF0.11640816926956177
aF0.11696168035268784
aF0.1175151839852333
aF0.1175151839852333
aF0.11640816926956177
aF0.11474765092134476
aF0.11308713257312775
aF0.11087311804294586
aF0.10865908861160278
aF0.1064450591802597
aF0.1047845408320427
aF0.10257052630186081
aF0.1009100079536438
aF0.09814247488975525
aF0.09648195654153824
aF0.09482143819332123
aF0.09371442347764969
aF0.09150040149688721
aF0.0898398831486702
aF0.08873286843299866
aF0.0859653502702713
aF0.08541183173656464
aF0.08375130593776703
aF0.08319780975580215
aF0.08264430612325668
aF0.08209078758955002
aF0.08153729140758514
aF0.08098378777503967
aF0.08098378777503967
aF0.08098378777503967
aF0.08098378777503967
aF0.08153729140758514
aF0.08153729140758514
aF0.08153729140758514
aF0.08209078758955002
aF0.08209078758955002
asg9
(lp23
F0.15118899941444397
aF0.15174251794815063
aF0.15284952521324158
aF0.1539565473794937
aF0.154510036110878
aF0.1561705619096756
aF0.15727758407592773
aF0.15838459134101868
aF0.15838459134101868
aF0.15893808007240295
aF0.15949158370494843
aF0.15949158370494843
aF0.15949158370494843
aF0.1600451022386551
aF0.1600451022386551
aF0.1600451022386551
aF0.1600451022386551
aF0.1600451022386551
aF0.1600451022386551
aF0.1600451022386551
aF0.1600451022386551
aF0.15949158370494843
aF0.15893808007240295
aF0.1578310877084732
aF0.15727758407592773
aF0.15727758407592773
aF0.15672406554222107
aF0.15672406554222107
aF0.1561705619096756
aF0.1561705619096756
aF0.1561705619096756
aF0.1561705619096756
aF0.1561705619096756
aF0.15506355464458466
aF0.15506355464458466
aF0.15506355464458466
aF0.154510036110878
aF0.154510036110878
aF0.1539565473794937
aF0.1539565473794937
aF0.15284952521324158
aF0.15284952521324158
aF0.15284952521324158
aF0.15284952521324158
aF0.15284952521324158
aF0.15284952521324158
aF0.15284952521324158
aF0.15284952521324158
aF0.15284952521324158
aF0.15284952521324158
aF0.15340302884578705
aF0.15340302884578705
aF0.15340302884578705
aF0.15340302884578705
aF0.1539565473794937
aF0.1539565473794937
aF0.154510036110878
aF0.154510036110878
aF0.154510036110878
aF0.154510036110878
aF0.154510036110878
aF0.154510036110878
aF0.154510036110878
aF0.15506355464458466
aF0.15561705827713013
aF0.15561705827713013
aF0.15561705827713013
aF0.1561705619096756
aF0.15672406554222107
aF0.1578310877084732
aF0.15949158370494843
aF0.1600451022386551
aF0.16115212440490723
aF0.16225911676883698
aF0.16225911676883698
aF0.16281262040138245
aF0.16281262040138245
aF0.16281262040138245
aF0.16281262040138245
aF0.16391964256763458
aF0.16391964256763458
aF0.16391964256763458
aF0.16391964256763458
aF0.16391964256763458
aF0.1633661389350891
aF0.16281262040138245
aF0.16115212440490723
aF0.16059860587120056
aF0.15949158370494843
aF0.15893808007240295
aF0.15838459134101868
aF0.1578310877084732
aF0.15727758407592773
aF0.15672406554222107
aF0.1561705619096756
aF0.15506355464458466
aF0.154510036110878
aF0.15284952521324158
aF0.1522960215806961
aF0.1506355106830597
aF0.14952848851680756
aF0.14952848851680756
asg11
I102
sba(iallograph.stroke
Stroke
p24
(dp25
g7
(lp26
F0.08375130593776703
aF0.08319780975580215
aF0.08264430612325668
aF0.08153729140758514
aF0.08098378777503967
aF0.07987677305936813
aF0.07766275107860565
aF0.07655573636293411
aF0.0748952180147171
aF0.07323469966650009
aF0.07212769240140915
aF0.06991366297006607
aF0.0693601593375206
aF0.06880664825439453
aF0.06825314462184906
aF0.06714612990617752
aF0.06714612990617752
aF0.06825314462184906
aF0.06991366297006607
aF0.07378821074962616
aF0.07876976579427719
aF0.08264430612325668
aF0.08707235008478165
aF0.09094689041376114
aF0.09482143819332123
aF0.10035649687051773
aF0.1047845408320427
aF0.10865908861160278
aF0.11308713257312775
aF0.11696168035268784
aF0.12028271704912186
aF0.12360375374555588
aF0.1269247978925705
aF0.1285853087902069
aF0.12913881242275238
aF0.1307993233203888
aF0.13135284185409546
aF0.13190634548664093
aF0.1324598491191864
aF0.1324598491191864
aF0.1324598491191864
aF0.1324598491191864
aF0.1324598491191864
aF0.1307993233203888
aF0.13024581968784332
aF0.12803180515766144
aF0.1269247978925705
aF0.1252642720937729
aF0.12305024266242981
aF0.12194323539733887
aF0.11972920596599579
aF0.11862219870090485
aF0.11696168035268784
aF0.11640816926956177
aF0.11474765092134476
aF0.11364064365625381
aF0.1119801253080368
aF0.11142661422491074
aF0.11087311804294586
aF0.1103196069598198
aF0.10921259969472885
aF0.10810557752847672
aF0.10755208134651184
aF0.10699857026338577
aF0.10589156299829483
aF0.1047845408320427
aF0.10423104465007782
aF0.10423104465007782
aF0.10367753356695175
aF0.10312402248382568
aF0.10257052630186081
aF0.10201701521873474
aF0.10146351158618927
aF0.10035649687051773
aF0.09924948960542679
aF0.09869597852230072
aF0.09814247488975525
aF0.09758896380662918
aF0.09703546017408371
aF0.09648195654153824
aF0.09482143819332123
aF0.09371442347764969
aF0.09205390512943268
aF0.09094689041376114
aF0.09094689041376114
aF0.053861990571022034
aF0.053861990571022034
asg9
(lp27
F0.17720378935337067
aF0.17720378935337067
aF0.17775730788707733
aF0.1783108115196228
aF0.1783108115196228
aF0.17941780388355255
aF0.1805248260498047
aF0.18163184821605682
aF0.18329234421253204
aF0.18439938127994537
aF0.18550638854503632
aF0.18716689944267273
aF0.18716689944267273
aF0.18827392160892487
aF0.18882742524147034
aF0.18938091397285461
aF0.18993441760540009
aF0.19214846193790436
aF0.19214846193790436
aF0.19380897283554077
aF0.19380897283554077
aF0.19380897283554077
aF0.19380897283554077
aF0.19380897283554077
aF0.19380897283554077
aF0.19380897283554077
aF0.19380897283554077
aF0.19380897283554077
aF0.19270196557044983
aF0.19270196557044983
aF0.1915949583053589
aF0.19104143977165222
aF0.19104143977165222
aF0.19104143977165222
aF0.19048793613910675
aF0.19048793613910675
aF0.19048793613910675
aF0.18993441760540009
aF0.18938091397285461
aF0.18882742524147034
aF0.18827392160892487
aF0.1877204030752182
aF0.1860598772764206
aF0.18495288491249084
aF0.18495288491249084
aF0.18439938127994537
aF0.1838458627462387
aF0.1838458627462387
aF0.1838458627462387
aF0.1838458627462387
aF0.1838458627462387
aF0.1838458627462387
aF0.1838458627462387
aF0.1838458627462387
aF0.1838458627462387
aF0.1838458627462387
aF0.1838458627462387
aF0.1838458627462387
aF0.1838458627462387
aF0.18439938127994537
aF0.18439938127994537
aF0.18495288491249084
aF0.1860598772764206
aF0.18661338090896606
aF0.18716689944267273
aF0.18827392160892487
aF0.18882742524147034
aF0.18938091397285461
aF0.18993441760540009
aF0.19104143977165222
aF0.19214846193790436
aF0.19380897283554077
aF0.19436247646808624
aF0.19546949863433838
aF0.19657649099826813
aF0.1971300095319748
aF0.1971300095319748
aF0.19768351316452026
aF0.19768351316452026
aF0.19768351316452026
aF0.19768351316452026
aF0.19823703169822693
aF0.19823703169822693
aF0.19823703169822693
aF0.19823703169822693
aF0.19104143977165222
aF0.19104143977165222
asg11
I87
sba(iallograph.stroke
Stroke
p28
(dp29
g7
(lp30
F0.06271808594465256
aF0.06161107122898102
aF0.06050406023859978
aF0.05995055288076401
aF0.057183027267456055
aF0.056076012551784515
aF0.054415494203567505
aF0.05220147222280502
aF0.051647964864969254
aF0.04998744651675224
aF0.048880431801080704
aF0.04666640982031822
aF0.04500589147210121
aF0.0433453731238842
aF0.04168485477566719
aF0.04057784378528595
aF0.03891732543706894
aF0.0378103144466877
aF0.03670329973101616
aF0.03559628874063492
aF0.03504278138279915
aF0.03282875940203667
aF0.0322752520442009
aF0.030614733695983887
aF0.028954215347766876
aF0.027847204357385635
aF0.026740191504359245
aF0.025633178651332855
aF0.025079673156142235
aF0.024526169523596764
aF0.025079673156142235
aF0.026186686009168625
aF0.027847204357385635
aF0.030061230063438416
aF0.03172174468636513
aF0.03393577039241791
aF0.03559628874063492
aF0.03725680708885193
aF0.03947083279490471
aF0.04168485477566719
aF0.04279186204075813
aF0.04445238411426544
aF0.04611290246248245
aF0.04832692816853523
aF0.05054095387458801
aF0.051094457507133484
aF0.053308483213186264
aF0.054415494203567505
aF0.056076012551784515
aF0.058290034532547
aF0.059397049248218536
aF0.06105756759643555
aF0.06216457858681679
aF0.0638250932097435
aF0.06437860429286957
aF0.06493210792541504
aF0.06659262627363205
aF0.06714612990617752
aF0.06880664825439453
aF0.0693601593375206
aF0.07046717405319214
aF0.07157418131828308
aF0.07212769240140915
aF0.07268119603395462
aF0.07323469966650009
aF0.07212769240140915
aF0.0693601593375206
aF0.06603912264108658
aF0.06327158957719803
aF0.06161107122898102
aF0.05995055288076401
aF0.058290034532547
aF0.05662951618432999
aF0.056076012551784515
aF0.055522508919239044
aF0.054968997836112976
aF0.054415494203567505
aF0.053861990571022034
aF0.053861990571022034
aF0.053861990571022034
aF0.054968997836112976
aF0.055522508919239044
aF0.05662951618432999
aF0.057736530900001526
aF0.058290034532547
aF0.059397049248218536
aF0.06050406023859978
aF0.06161107122898102
aF0.06216457858681679
aF0.06271808594465256
aF0.06327158957719803
aF0.0638250932097435
aF0.0638250932097435
aF0.0638250932097435
aF0.0638250932097435
aF0.0638250932097435
aF0.0638250932097435
aF0.0638250932097435
aF0.06327158957719803
aF0.06271808594465256
aF0.06161107122898102
aF0.06105756759643555
aF0.05995055288076401
aF0.05995055288076401
aF0.05995055288076401
aF0.05995055288076401
aF0.05995055288076401
aF0.05995055288076401
aF0.05995055288076401
aF0.06050406023859978
aF0.06105756759643555
aF0.06216457858681679
aF0.0638250932097435
aF0.06548561155796051
aF0.06603912264108658
aF0.06714612990617752
aF0.06880664825439453
aF0.06991366297006607
aF0.07046717405319214
aF0.07212769240140915
aF0.07268119603395462
aF0.07434171438217163
aF0.07544872909784317
aF0.07544872909784317
asg9
(lp31
F0.2270193248987198
aF0.22757284343242645
aF0.22757284343242645
aF0.22757284343242645
aF0.22812634706497192
aF0.22812634706497192
aF0.22812634706497192
aF0.2286798506975174
aF0.22923336923122406
aF0.22923336923122406
aF0.22923336923122406
aF0.22923336923122406
aF0.22923336923122406
aF0.22923336923122406
aF0.22923336923122406
aF0.22923336923122406
aF0.22923336923122406
aF0.22923336923122406
aF0.22923336923122406
aF0.22923336923122406
aF0.22923336923122406
aF0.2286798506975174
aF0.2286798506975174
aF0.22812634706497192
aF0.22757284343242645
aF0.22757284343242645
aF0.2264658361673355
aF0.22591233253479004
aF0.22591233253479004
aF0.22535881400108337
aF0.22535881400108337
aF0.22535881400108337
aF0.2248053103685379
aF0.2248053103685379
aF0.22369828820228577
aF0.22369828820228577
aF0.22369828820228577
aF0.2231447994709015
aF0.22259129583835602
aF0.22259129583835602
aF0.22259129583835602
aF0.22259129583835602
aF0.22203777730464935
aF0.2209307700395584
aF0.2209307700395584
aF0.2209307700395584
aF0.22037725150585175
aF0.22037725150585175
aF0.22037725150585175
aF0.21982376277446747
aF0.21982376277446747
aF0.21982376277446747
aF0.219270259141922
aF0.21816323697566986
aF0.21816323697566986
aF0.2176097333431244
aF0.2176097333431244
aF0.2176097333431244
aF0.21705621480941772
aF0.21705621480941772
aF0.21650271117687225
aF0.21650271117687225
aF0.21650271117687225
aF0.21650271117687225
aF0.21650271117687225
aF0.21650271117687225
aF0.21650271117687225
aF0.21650271117687225
aF0.21871674060821533
aF0.21871674060821533
aF0.21982376277446747
aF0.22037725150585175
aF0.22203777730464935
aF0.22203777730464935
aF0.22259129583835602
aF0.2231447994709015
aF0.2231447994709015
aF0.22369828820228577
aF0.22425180673599243
aF0.2248053103685379
aF0.22535881400108337
aF0.22535881400108337
aF0.22535881400108337
aF0.22535881400108337
aF0.22535881400108337
aF0.22535881400108337
aF0.22535881400108337
aF0.22425180673599243
aF0.22369828820228577
aF0.2231447994709015
aF0.22259129583835602
aF0.22203777730464935
aF0.22148427367210388
aF0.2209307700395584
aF0.219270259141922
aF0.21871674060821533
aF0.21816323697566986
aF0.2176097333431244
aF0.21650271117687225
aF0.21594922244548798
aF0.21594922244548798
aF0.21594922244548798
aF0.21650271117687225
aF0.21705621480941772
aF0.2176097333431244
aF0.21871674060821533
aF0.219270259141922
aF0.21982376277446747
aF0.2209307700395584
aF0.22203777730464935
aF0.22259129583835602
aF0.2231447994709015
aF0.2231447994709015
aF0.22425180673599243
aF0.2248053103685379
aF0.2248053103685379
aF0.22535881400108337
aF0.22591233253479004
aF0.22591233253479004
aF0.22591233253479004
aF0.22591233253479004
aF0.22591233253479004
aF0.2270193248987198
aF0.2270193248987198
asg11
I124
sba(iallograph.stroke
Stroke
p32
(dp33
g7
(lp34
F0.048880431801080704
aF0.048880431801080704
aF0.048880431801080704
aF0.048880431801080704
aF0.048880431801080704
aF0.04832692816853523
aF0.04777342081069946
aF0.04721991345286369
aF0.04721991345286369
aF0.04666640982031822
aF0.04611290246248245
aF0.04500589147210121
aF0.04445238411426544
aF0.04389888420701027
aF0.0433453731238842
aF0.04279186204075813
aF0.04223836213350296
aF0.04168485477566719
aF0.04113135114312172
aF0.03947083279490471
aF0.03891732543706894
aF0.03836381807923317
aF0.03725680708885193
aF0.03614979237318039
aF0.03559628874063492
aF0.03448927402496338
aF0.03393577039241791
aF0.03282875940203667
aF0.03172174468636513
aF0.030614733695983887
aF0.030061230063438416
aF0.028954215347766876
aF0.028400709852576256
aF0.027847204357385635
aF0.027293696999549866
aF0.026740191504359245
aF0.027293696999549866
aF0.028400709852576256
aF0.030061230063438416
aF0.031168239191174507
aF0.03172174468636513
aF0.0322752520442009
aF0.03393577039241791
aF0.03448927402496338
aF0.03670329973101616
aF0.0378103144466877
aF0.03947083279490471
aF0.04113135114312172
aF0.04223836213350296
aF0.0433453731238842
aF0.04555940255522728
aF0.04721991345286369
aF0.04832692816853523
aF0.048880431801080704
aF0.05054095387458801
aF0.051647964864969254
aF0.052754975855350494
aF0.053861990571022034
aF0.055522508919239044
aF0.05662951618432999
aF0.058290034532547
aF0.058843545615673065
aF0.05995055288076401
aF0.06161107122898102
aF0.06216457858681679
aF0.0638250932097435
aF0.06493210792541504
aF0.06548561155796051
aF0.06659262627363205
aF0.06714612990617752
aF0.06825314462184906
aF0.06991366297006607
aF0.07046717405319214
aF0.07102067768573761
aF0.07268119603395462
aF0.07323469966650009
aF0.07378821074962616
aF0.07378821074962616
aF0.07378821074962616
aF0.07378821074962616
aF0.07378821074962616
aF0.07378821074962616
aF0.07378821074962616
aF0.07378821074962616
aF0.07268119603395462
aF0.07212769240140915
aF0.07157418131828308
aF0.07046717405319214
aF0.06991366297006607
aF0.06991366297006607
asg9
(lp35
F0.2452850341796875
aF0.24583853781223297
aF0.2469455599784851
aF0.24749904870986938
aF0.24805256724357605
aF0.249159574508667
aF0.24971309304237366
aF0.25026658177375793
aF0.2508201003074646
aF0.25137361884117126
aF0.25192710757255554
aF0.2530341148376465
aF0.25358763337135315
aF0.2541411221027374
aF0.2546946406364441
aF0.25580164790153503
aF0.2563551664352417
aF0.2563551664352417
aF0.256908655166626
aF0.25746217370033264
aF0.25746217370033264
aF0.25746217370033264
aF0.25746217370033264
aF0.2585691809654236
aF0.2585691809654236
aF0.2585691809654236
aF0.2585691809654236
aF0.2585691809654236
aF0.2585691809654236
aF0.2585691809654236
aF0.2585691809654236
aF0.2585691809654236
aF0.2585691809654236
aF0.2585691809654236
aF0.2585691809654236
aF0.2580156922340393
aF0.25746217370033264
aF0.256908655166626
aF0.25580164790153503
aF0.25580164790153503
aF0.25580164790153503
aF0.25524815917015076
aF0.25524815917015076
aF0.25524815917015076
aF0.25524815917015076
aF0.25524815917015076
aF0.25524815917015076
aF0.25524815917015076
aF0.25524815917015076
aF0.25524815917015076
aF0.25524815917015076
aF0.25524815917015076
aF0.25524815917015076
aF0.25524815917015076
aF0.25524815917015076
aF0.25524815917015076
aF0.25524815917015076
aF0.25524815917015076
aF0.25524815917015076
aF0.25524815917015076
aF0.25524815917015076
aF0.25524815917015076
aF0.25524815917015076
aF0.25524815917015076
aF0.25524815917015076
aF0.25524815917015076
aF0.25524815917015076
aF0.25524815917015076
aF0.25524815917015076
aF0.25524815917015076
aF0.25524815917015076
aF0.25524815917015076
aF0.25524815917015076
aF0.25524815917015076
aF0.25580164790153503
aF0.2563551664352417
aF0.256908655166626
aF0.2580156922340393
aF0.2585691809654236
aF0.2596761882305145
aF0.26133671402931213
aF0.263550728559494
aF0.2641042470932007
aF0.2657647430896759
aF0.2674252688884735
aF0.2679787874221802
aF0.26853230595588684
aF0.27019280195236206
aF0.2707463204860687
aF0.2707463204860687
asg11
I90
sba(iallograph.stroke
Stroke
p36
(dp37
g7
(lp38
F0.06493210792541504
aF0.06437860429286957
aF0.0638250932097435
aF0.06327158957719803
aF0.06327158957719803
aF0.06327158957719803
aF0.06327158957719803
aF0.06493210792541504
aF0.06548561155796051
aF0.06714612990617752
aF0.0693601593375206
aF0.07046717405319214
aF0.07102067768573761
aF0.07268119603395462
aF0.07378821074962616
aF0.07544872909784317
aF0.07655573636293411
aF0.07766275107860565
aF0.07876976579427719
aF0.08043026924133301
aF0.08098378777503967
aF0.08153729140758514
aF0.08209078758955002
aF0.08319780975580215
aF0.08375130593776703
aF0.08430483192205429
aF0.08485832810401917
aF0.08485832810401917
aF0.08485832810401917
aF0.08485832810401917
aF0.08485832810401917
aF0.08485832810401917
aF0.08485832810401917
aF0.08430483192205429
aF0.08264430612325668
aF0.08153729140758514
aF0.08043026924133301
aF0.07987677305936813
aF0.07766275107860565
aF0.07710924744606018
aF0.07655573636293411
aF0.07544872909784317
aF0.0748952180147171
aF0.07378821074962616
aF0.07268119603395462
aF0.07212769240140915
aF0.07157418131828308
aF0.07102067768573761
aF0.07046717405319214
aF0.06991366297006607
aF0.0693601593375206
aF0.06880664825439453
aF0.06825314462184906
aF0.06714612990617752
aF0.06659262627363205
aF0.06603912264108658
aF0.06714612990617752
aF0.06825314462184906
aF0.06991366297006607
aF0.07102067768573761
aF0.07212769240140915
aF0.07323469966650009
aF0.0748952180147171
aF0.07600223273038864
aF0.07655573636293411
aF0.07821625471115112
aF0.07932326942682266
aF0.08098378777503967
aF0.08153729140758514
aF0.08209078758955002
aF0.08264430612325668
aF0.08264430612325668
aF0.08375130593776703
aF0.08375130593776703
aF0.08375130593776703
aF0.08375130593776703
aF0.08375130593776703
aF0.08375130593776703
aF0.08375130593776703
aF0.08375130593776703
aF0.08375130593776703
aF0.08319780975580215
aF0.08264430612325668
aF0.08209078758955002
aF0.08209078758955002
aF0.08209078758955002
asg9
(lp39
F0.2989751398563385
aF0.2995286285877228
aF0.30008211731910706
aF0.3011891543865204
aF0.30229616165161133
aF0.302849680185318
aF0.30395668745040894
aF0.30561721324920654
aF0.3061707019805908
aF0.3067241907119751
aF0.30727770924568176
aF0.3083847165107727
aF0.30893823504447937
aF0.30893823504447937
aF0.30893823504447937
aF0.30893823504447937
aF0.30893823504447937
aF0.30893823504447937
aF0.30893823504447937
aF0.30893823504447937
aF0.3083847165107727
aF0.3078312277793884
aF0.30727770924568176
aF0.3067241907119751
aF0.30561721324920654
aF0.3050636947154999
aF0.30395668745040894
aF0.30340316891670227
aF0.302849680185318
aF0.30229616165161133
aF0.30174264311790466
aF0.3006356358528137
aF0.30008211731910706
aF0.2995286285877228
aF0.30008211731910706
aF0.3006356358528137
aF0.3011891543865204
aF0.30174264311790466
aF0.302849680185318
aF0.30340316891670227
aF0.30395668745040894
aF0.3050636947154999
aF0.30561721324920654
aF0.3061707019805908
aF0.3067241907119751
aF0.30727770924568176
aF0.30893823504447937
aF0.30949175357818604
aF0.30949175357818604
aF0.3100452423095703
aF0.310598760843277
aF0.31115224957466125
aF0.3117057681083679
aF0.3122592866420746
aF0.31281277537345886
aF0.31281277537345886
aF0.31281277537345886
aF0.3122592866420746
aF0.3117057681083679
aF0.310598760843277
aF0.310598760843277
aF0.310598760843277
aF0.310598760843277
aF0.310598760843277
aF0.310598760843277
aF0.3100452423095703
aF0.3100452423095703
aF0.3100452423095703
aF0.3100452423095703
aF0.310598760843277
aF0.31115224957466125
aF0.3117057681083679
aF0.3133662939071655
aF0.3139197826385498
aF0.31502678990364075
aF0.31668728590011597
aF0.3189013600349426
aF0.32056185603141785
aF0.32222238183021545
aF0.32277587056159973
aF0.32443639636039734
aF0.324989914894104
aF0.32609695196151733
aF0.3266504406929016
aF0.3272039592266083
aF0.3272039592266083
asg11
I86
sbasS'pen_ups'
p40
(lp41
(lp42
I1
aI0
aI0
aI0
aI0
aI0
aI0
aI0
aI0
aI0
aI0
aI0
aI0
aI0
aI0
aI0
aI0
aI0
aI0
aI0
aI0
aI0
aI0
aI0
aI0
aI0
aI0
aI0
aI0
aI0
aI0
aI0
aI0
aI0
aI1
aI0
aI0
aI0
aI0
aI0
aI0
aI0
aI0
aI0
aI0
aI0
aI0
aI0
aI0
aI0
aI0
aI0
aI0
aI0
aa(lp43
I1
aI0
aI0
aI0
aI0
aI0
aI0
aI0
aI0
aI0
aI0
aI0
aI0
aI0
aI0
aI0
aI0
aI0
aI0
aI0
aI0
aI0
aI0
aI0
aI0
aI0
aI0
aI0
aI0
aI0
aI1
aI0
aa(lp44
I1
aI0
aI0
aI0
aI0
aI0
aI0
aI0
aI0
aI0
aI0
aI0
aI0
aI0
aI0
aI0
aI0
aI0
aI0
aI0
aI0
aI0
aI0
aI0
aI0
aI0
aI0
aI0
aI0
aI0
aI0
aI0
aI0
aI0
aI0
aI0
aI0
aI0
aI0
aI0
aI0
aI0
aI0
aI0
aI0
aI0
aI0
aI0
aI0
aI0
aI0
aI0
aI0
aI0
aI0
aI0
aI0
aI0
aI0
aI0
aI0
aI0
aI0
aI0
aI0
aI0
aI0
aI0
aI0
aI0
aI0
aI0
aI0
aI0
aI0
aI0
aI0
aI0
aI0
aI0
aI0
aI0
aI0
aI0
aI0
aI0
aI0
aa(lp45
I1
aI0
aI0
aI0
aI0
aI0
aI0
aI0
aI0
aI0
aI0
aI0
aI0
aI0
aI0
aI0
aI0
aI0
aI0
aI0
aI0
aI0
aI0
aI0
aI0
aI0
aI0
aI0
aI0
aI0
aI0
aI0
aI0
aI0
aI0
aI0
aI0
aI0
aI0
aI0
aI0
aI0
aI0
aI0
aI0
aI0
aI0
aI0
aI0
aI0
aI0
aI0
aI0
aI0
aI0
aI0
aI0
aI0
aI0
aI0
aI0
aI0
aI0
aI0
aI0
aI0
aI0
aI0
aI0
aI0
aI0
aI0
aI0
aI0
aI0
aI0
aI0
aI0
aI0
aI0
aI0
aI0
aI0
aI0
aI0
aI0
aI0
aI0
aI0
aI0
aI0
aI0
aI0
aI0
aI0
aI0
aI0
aI0
aI0
aI0
aI0
aI0
aa(lp46
I1
aI0
aI0
aI0
aI0
aI0
aI0
aI0
aI0
aI0
aI0
aI0
aI0
aI0
aI0
aI0
aI0
aI0
aI0
aI0
aI0
aI0
aI0
aI0
aI0
aI0
aI0
aI0
aI0
aI0
aI0
aI0
aI0
aI0
aI0
aI0
aI0
aI0
aI0
aI0
aI0
aI0
aI0
aI0
aI0
aI0
aI0
aI0
aI0
aI0
aI0
aI0
aI0
aI0
aI0
aI0
aI0
aI0
aI0
aI0
aI0
aI0
aI0
aI0
aI0
aI0
aI0
aI0
aI0
aI0
aI0
aI0
aI0
aI0
aI0
aI0
aI0
aI0
aI0
aI0
aI0
aI0
aI0
aI0
aI0
aI1
aI0
aa(lp47
I1
aI0
aI0
aI0
aI0
aI0
aI0
aI0
aI0
aI0
aI0
aI0
aI0
aI0
aI0
aI0
aI0
aI0
aI0
aI0
aI0
aI0
aI0
aI0
aI0
aI0
aI0
aI0
aI0
aI0
aI0
aI0
aI0
aI0
aI0
aI0
aI0
aI0
aI0
aI0
aI0
aI0
aI0
aI0
aI0
aI0
aI0
aI0
aI0
aI0
aI0
aI0
aI0
aI0
aI0
aI0
aI0
aI0
aI0
aI0
aI0
aI0
aI0
aI0
aI0
aI0
aI0
aI0
aI0
aI0
aI0
aI0
aI0
aI0
aI0
aI0
aI0
aI0
aI0
aI0
aI0
aI0
aI0
aI0
aI0
aI0
aI0
aI0
aI0
aI0
aI0
aI0
aI0
aI0
aI0
aI0
aI0
aI0
aI0
aI0
aI0
aI0
aI0
aI0
aI0
aI0
aI0
aI0
aI0
aI0
aI0
aI0
aI0
aI0
aI0
aI0
aI0
aI0
aI0
aI0
aI0
aI0
aI0
aI0
aa(lp48
I1
aI0
aI0
aI0
aI0
aI0
aI0
aI0
aI0
aI0
aI0
aI0
aI0
aI0
aI0
aI0
aI0
aI0
aI0
aI0
aI0
aI0
aI0
aI0
aI0
aI0
aI0
aI0
aI0
aI0
aI0
aI0
aI0
aI0
aI0
aI0
aI0
aI0
aI0
aI0
aI0
aI0
aI0
aI0
aI0
aI0
aI0
aI0
aI0
aI0
aI0
aI0
aI0
aI0
aI0
aI0
aI0
aI0
aI0
aI0
aI0
aI0
aI0
aI0
aI0
aI0
aI0
aI0
aI0
aI0
aI0
aI0
aI0
aI0
aI0
aI0
aI0
aI0
aI0
aI0
aI0
aI0
aI0
aI0
aI0
aI0
aI0
aI0
aI0
aI0
aa(lp49
I1
aI0
aI0
aI0
aI0
aI0
aI0
aI0
aI0
aI0
aI0
aI0
aI0
aI0
aI0
aI0
aI0
aI0
aI0
aI0
aI0
aI0
aI0
aI0
aI0
aI0
aI0
aI0
aI0
aI0
aI0
aI0
aI0
aI0
aI0
aI0
aI0
aI0
aI0
aI0
aI0
aI0
aI0
aI0
aI0
aI0
aI0
aI0
aI0
aI0
aI0
aI0
aI0
aI0
aI0
aI0
aI0
aI0
aI0
aI0
aI0
aI0
aI0
aI0
aI0
aI0
aI0
aI0
aI0
aI0
aI0
aI0
aI0
aI0
aI0
aI0
aI0
aI0
aI0
aI0
aI0
aI0
aI0
aI0
aI0
aI0
aassS'bloop_doe'
p50
(dp51
g3
(lp52
(iallograph.stroke
Stroke
p53
(dp54
g7
(lp55
F0.05545283108949661
aF0.05601418763399124
aF0.0571369044482708
aF0.05938233062624931
aF0.06162776052951813
aF0.06331183761358261
aF0.06555726379156113
aF0.06780268996953964
aF0.07004811614751816
aF0.07117083668708801
aF0.0728549063205719
aF0.07397761940956116
aF0.07566168904304504
aF0.07622304558753967
aF0.07734576612710953
aF0.07902983576059341
aF0.07959118485450745
aF0.08015254884958267
aF0.0807139053940773
aF0.08127526193857193
aF0.08183661848306656
aF0.08183661848306656
aF0.08183661848306656
aF0.08183661848306656
aF0.08183661848306656
aF0.08183661848306656
aF0.06555726379156113
aF0.0649959072470665
aF0.06443454325199127
aF0.06387318670749664
aF0.06387318670749664
aF0.06331183761358261
aF0.062189117074012756
aF0.06162776052951813
aF0.06162776052951813
aF0.0610664039850235
aF0.0610664039850235
aF0.06050504744052887
aF0.06050504744052887
aF0.06050504744052887
aF0.06050504744052887
aF0.06050504744052887
aF0.06050504744052887
aF0.06050504744052887
aF0.06050504744052887
aF0.06050504744052887
asg9
(lp56
F0.06022166460752487
aF0.059660304337739944
aF0.059660304337739944
aF0.059660304337739944
aF0.059660304337739944
aF0.059660304337739944
aF0.059660304337739944
aF0.059660304337739944
aF0.059660304337739944
aF0.059660304337739944
aF0.059660304337739944
aF0.059660304337739944
aF0.059660304337739944
aF0.06022166460752487
aF0.06134437397122383
aF0.06190573424100876
aF0.06246709078550339
aF0.06302844732999802
aF0.06415116041898727
aF0.0647125169634819
aF0.06527388095855713
aF0.06639659404754639
aF0.06751930713653564
aF0.06808066368103027
aF0.06920337677001953
aF0.06920337677001953
aF0.055730804800987244
aF0.05629216134548187
aF0.05741487815976143
aF0.059660304337739944
aF0.06134437397122383
aF0.06246709078550339
aF0.0647125169634819
aF0.06695795059204102
aF0.06808066368103027
aF0.06920337677001953
aF0.07032608985900879
aF0.07144880294799805
aF0.07201016694307327
aF0.07313288003206253
aF0.07369423657655716
aF0.07537830621004105
aF0.07593966275453568
aF0.0765010192990303
aF0.07762373983860016
aF0.07762373983860016
asg11
I46
sba(iallograph.stroke
Stroke
p57
(dp58
g7
(lp59
F0.0767844095826149
aF0.07734576612710953
aF0.07622304558753967
aF0.07566168904304504
aF0.07397761940956116
aF0.0728549063205719
aF0.07229354977607727
aF0.07117083668708801
aF0.07004811614751816
aF0.07060948014259338
aF0.07117083668708801
aF0.0728549063205719
aF0.07397761940956116
aF0.07453897595405579
aF0.07566168904304504
aF0.0767844095826149
aF0.07734576612710953
aF0.07846847921609879
aF0.07902983576059341
aF0.07959118485450745
aF0.0807139053940773
aF0.08183661848306656
aF0.08239798247814178
aF0.08295933157205582
aF0.08295933157205582
aF0.08295933157205582
aF0.08295933157205582
aF0.08295933157205582
aF0.08295933157205582
aF0.08295933157205582
aF0.08295933157205582
aF0.08239798247814178
aF0.08183661848306656
aF0.08127526193857193
aF0.0807139053940773
aF0.0807139053940773
aF0.05938233062624931
aF0.05938233062624931
asg9
(lp60
F0.08660545200109482
aF0.08716681599617004
aF0.08772816509008408
aF0.0882895216345787
aF0.08941223472356796
aF0.08997359126806259
aF0.09053495526313782
aF0.09053495526313782
aF0.09109631180763245
aF0.09109631180763245
aF0.09109631180763245
aF0.09109631180763245
aF0.09109631180763245
aF0.09109631180763245
aF0.09109631180763245
aF0.09109631180763245
aF0.09109631180763245
aF0.09109631180763245
aF0.09109631180763245
aF0.09109631180763245
aF0.09165766090154648
aF0.09278038889169693
aF0.09334173798561096
aF0.09502580761909485
aF0.09558716416358948
aF0.0961485281586647
aF0.09727123379707336
aF0.09783259779214859
aF0.09839395433664322
aF0.09895531088113785
aF0.1000780239701271
aF0.10063938051462173
aF0.10063938051462173
aF0.10063938051462173
aF0.10063938051462173
aF0.10063938051462173
aF0.09558716416358948
aF0.09558716416358948
asg11
I38
sba(iallograph.stroke
Stroke
p61
(dp62
g7
(lp63
F0.09699326753616333
aF0.0964319035410881
aF0.09587055444717407
aF0.09530919790267944
aF0.09418648481369019
aF0.09306376427412033
aF0.09081833064556122
aF0.08969562500715256
aF0.08745019137859344
aF0.08688882738351822
aF0.0846434086561203
aF0.08295933157205582
aF0.08183661848306656
aF0.08015254884958267
aF0.07902983576059341
aF0.07734576612710953
aF0.07622304558753967
aF0.0767844095826149
aF0.07790711522102356
aF0.08015254884958267
aF0.08239798247814178
aF0.0846434086561203
aF0.08632747828960419
aF0.0885728970170021
aF0.09137969464063644
aF0.09306376427412033
aF0.09474783390760422
aF0.09699326753616333
aF0.09867733716964722
aF0.09923869371414185
aF0.1003614068031311
aF0.10148411989212036
aF0.10260684043169022
aF0.10316819697618484
aF0.1042909100651741
aF0.10485226660966873
aF0.10541362315416336
aF0.10597497969865799
aF0.10709769278764725
aF0.10765904933214188
aF0.10878176242113113
aF0.10990448296070099
aF0.11046583205461502
aF0.11102719604969025
aF0.11158855259418488
aF0.11327262222766876
aF0.11383398622274399
aF0.11439533531665802
aF0.11551805585622787
aF0.1160794049501419
aF0.11664076894521713
aF0.11720212548971176
aF0.1177634745836258
aF0.1160794049501419
aF0.11383398622274399
aF0.11214990168809891
aF0.11046583205461502
aF0.1082204133272171
aF0.10653633624315262
aF0.1042909100651741
aF0.10204547643661499
aF0.10092276334762573
aF0.09867733716964722
aF0.09699326753616333
aF0.09530919790267944
aF0.09362512081861496
aF0.0925024151802063
aF0.09081833064556122
aF0.08969562500715256
aF0.08801155537366867
aF0.08745019137859344
aF0.08688882738351822
aF0.08520475775003433
aF0.08408205211162567
aF0.08295933157205582
aF0.08183661848306656
aF0.0807139053940773
aF0.07902983576059341
aF0.07790711522102356
aF0.0767844095826149
aF0.07622304558753967
aF0.07566168904304504
aF0.07510033249855042
aF0.07397761940956116
aF0.07397761940956116
aF0.07397761940956116
aF0.07397761940956116
aF0.07397761940956116
aF0.07453897595405579
aF0.07510033249855042
aF0.07622304558753967
aF0.0767844095826149
aF0.07790711522102356
aF0.07902983576059341
aF0.07959118485450745
aF0.08015254884958267
aF0.0807139053940773
aF0.08127526193857193
aF0.08183661848306656
aF0.08295933157205582
aF0.08352068811655045
aF0.08408205211162567
aF0.0846434086561203
aF0.08520475775003433
aF0.08576612174510956
aF0.08576612174510956
aF0.08632747828960419
aF0.08688882738351822
aF0.08688882738351822
aF0.08688882738351822
aF0.08688882738351822
aF0.08688882738351822
aF0.08688882738351822
aF0.08688882738351822
aF0.08688882738351822
aF0.08688882738351822
aF0.08688882738351822
aF0.08688882738351822
aF0.08688882738351822
aF0.08688882738351822
aF0.08688882738351822
aF0.08688882738351822
aF0.08688882738351822
aF0.08688882738351822
aF0.08688882738351822
aF0.08632747828960419
aF0.08632747828960419
asg9
(lp64
F0.11130516976118088
aF0.1118665263056755
aF0.11242787539958954
aF0.11298923939466476
aF0.11411194503307343
aF0.11467330902814865
aF0.11523467302322388
aF0.1157960295677185
aF0.11691874265670776
aF0.11748009920120239
aF0.11748009920120239
aF0.11804144829511642
aF0.11804144829511642
aF0.11804144829511642
aF0.11804144829511642
aF0.11804144829511642
aF0.11860281229019165
aF0.11860281229019165
aF0.11916416883468628
aF0.11972551792860031
aF0.11972551792860031
aF0.11972551792860031
aF0.11972551792860031
aF0.11972551792860031
aF0.11972551792860031
aF0.11972551792860031
aF0.11972551792860031
aF0.11972551792860031
aF0.11972551792860031
aF0.11972551792860031
aF0.11972551792860031
aF0.11972551792860031
aF0.11972551792860031
aF0.12028688192367554
aF0.12028688192367554
aF0.12028688192367554
aF0.12028688192367554
aF0.12028688192367554
aF0.12028688192367554
aF0.12028688192367554
aF0.12028688192367554
aF0.12028688192367554
aF0.12028688192367554
aF0.12028688192367554
aF0.12028688192367554
aF0.12028688192367554
aF0.12028688192367554
aF0.12028688192367554
aF0.12028688192367554
aF0.12028688192367554
aF0.12028688192367554
aF0.12028688192367554
aF0.11972551792860031
aF0.11972551792860031
aF0.11972551792860031
aF0.11972551792860031
aF0.11972551792860031
aF0.11972551792860031
aF0.11972551792860031
aF0.11972551792860031
aF0.11972551792860031
aF0.11972551792860031
aF0.11972551792860031
aF0.11972551792860031
aF0.11972551792860031
aF0.11972551792860031
aF0.11972551792860031
aF0.11972551792860031
aF0.11972551792860031
aF0.11972551792860031
aF0.11972551792860031
aF0.11972551792860031
aF0.12028688192367554
aF0.12084824591875076
aF0.12140960246324539
aF0.12197095155715942
aF0.12309367209672928
aF0.12421638518571854
aF0.1253390908241272
aF0.12646181881427765
aF0.12702317535877228
aF0.1275845319032669
aF0.12814588844776154
aF0.1292686015367508
aF0.13039131462574005
aF0.1315140277147293
aF0.13207538425922394
aF0.1331980973482132
aF0.13432081043720245
aF0.13488216698169708
aF0.1354435235261917
aF0.1354435235261917
aF0.13600488007068634
aF0.13656625151634216
aF0.13656625151634216
aF0.1371275931596756
aF0.1371275931596756
aF0.1371275931596756
aF0.1371275931596756
aF0.1371275931596756
aF0.13656625151634216
aF0.13600488007068634
aF0.13600488007068634
aF0.1354435235261917
aF0.13488216698169708
aF0.13432081043720245
aF0.1331980973482132
aF0.13263674080371857
aF0.13095267117023468
aF0.13039131462574005
aF0.12982995808124542
aF0.12870724499225616
aF0.12814588844776154
aF0.1275845319032669
aF0.12702317535877228
aF0.12590046226978302
aF0.1253390908241272
aF0.12477774173021317
aF0.12421638518571854
aF0.12309367209672928
aF0.12253231555223465
aF0.12197095155715942
aF0.12140960246324539
aF0.12028688192367554
aF0.11972551792860031
aF0.11916416883468628
aF0.11916416883468628
asg11
I127
sba(iallograph.stroke
Stroke
p65
(dp66
g7
(lp67
F0.07341626286506653
aF0.0728549063205719
aF0.0728549063205719
aF0.0728549063205719
aF0.0728549063205719
aF0.07229354977607727
aF0.07229354977607727
aF0.07060948014259338
aF0.06948675960302353
aF0.06836404651403427
aF0.06724133342504501
aF0.06667997688055038
aF0.06555726379156113
aF0.06443454325199127
aF0.06275047361850739
aF0.062189117074012756
aF0.06050504744052887
aF0.058820974081754684
aF0.0571369044482708
aF0.05601418763399124
aF0.053768761456012726
aF0.0532074011862278
aF0.05152333155274391
aF0.050400614738464355
aF0.049277905374765396
aF0.04871654510498047
aF0.04759383574128151
aF0.04647111892700195
aF0.045909758657217026
aF0.047032471746206284
aF0.049277905374765396
aF0.04983925819396973
aF0.05152333155274391
aF0.05264604464173317
aF0.05489147827029228
aF0.05657554790377617
aF0.058259617537260056
aF0.05994369089603424
aF0.062189117074012756
aF0.06443454325199127
aF0.06667997688055038
aF0.0689254105091095
aF0.07173219323158264
aF0.07453897595405579
aF0.07734576612710953
aF0.0807139053940773
aF0.08295933157205582
aF0.08688882738351822
aF0.09081833064556122
aF0.09474783390760422
aF0.09923869371414185
aF0.10316819697618484
aF0.10653633624315262
aF0.10990448296070099
aF0.11327262222766876
aF0.11551805585622787
aF0.11720212548971176
aF0.1177634745836258
aF0.11832483857870102
aF0.11888619512319565
aF0.1200089082121849
aF0.12057026475667953
aF0.12113162875175476
aF0.12169297784566879
aF0.12057026475667953
aF0.11944755911827087
aF0.1177634745836258
aF0.11664076894521713
aF0.11439533531665802
aF0.11214990168809891
aF0.10934311896562576
aF0.1082204133272171
aF0.10541362315416336
aF0.10316819697618484
aF0.10092276334762573
aF0.09980005025863647
aF0.09811598062515259
aF0.09755462408065796
aF0.09587055444717407
aF0.09418648481369019
aF0.09306376427412033
aF0.09137969464063644
aF0.09025698155164719
aF0.08969562500715256
aF0.0885728970170021
aF0.0885728970170021
aF0.08801155537366867
aF0.08801155537366867
aF0.08688882738351822
aF0.08632747828960419
aF0.08576612174510956
aF0.08520475775003433
aF0.08408205211162567
aF0.08295933157205582
aF0.08183661848306656
aF0.08127526193857193
aF0.08015254884958267
aF0.08015254884958267
aF0.07959118485450745
aF0.07959118485450745
aF0.07902983576059341
aF0.07902983576059341
asg9
(lp68
F0.13993439078330994
aF0.14049573242664337
aF0.1410571038722992
aF0.14161846041679382
aF0.14217981696128845
aF0.1433025300502777
aF0.14386388659477234
aF0.14610931277275085
aF0.14779339730739594
aF0.148916095495224
aF0.15060018002986908
aF0.1511615365743637
aF0.15172287821769714
aF0.1528456062078476
aF0.15340696275234222
aF0.15340696275234222
aF0.15396831929683685
aF0.15452967584133148
aF0.15452967584133148
aF0.15452967584133148
aF0.15452967584133148
aF0.15452967584133148
aF0.15452967584133148
aF0.15452967584133148
aF0.15452967584133148
aF0.15452967584133148
aF0.15452967584133148
aF0.15452967584133148
aF0.15452967584133148
aF0.15396831929683685
aF0.1528456062078476
aF0.1528456062078476
aF0.1528456062078476
aF0.15228424966335297
aF0.15228424966335297
aF0.15228424966335297
aF0.15172287821769714
aF0.15172287821769714
aF0.1511615365743637
aF0.1511615365743637
aF0.1511615365743637
aF0.15003880858421326
aF0.15003880858421326
aF0.14947746694087982
aF0.148916095495224
aF0.1472320258617401
aF0.1472320258617401
aF0.14667066931724548
aF0.14554795622825623
aF0.1449865996837616
aF0.1449865996837616
aF0.1449865996837616
aF0.1433025300502777
aF0.1433025300502777
aF0.1433025300502777
aF0.14274117350578308
aF0.14274117350578308
aF0.14274117350578308
aF0.14217981696128845
aF0.14217981696128845
aF0.14217981696128845
aF0.14274117350578308
aF0.1433025300502777
aF0.14386388659477234
aF0.1449865996837616
aF0.14610931277275085
aF0.14667066931724548
aF0.1472320258617401
aF0.14779339730739594
aF0.148916095495224
aF0.15003880858421326
aF0.15003880858421326
aF0.15003880858421326
aF0.15003880858421326
aF0.15003880858421326
aF0.15003880858421326
aF0.15003880858421326
aF0.15003880858421326
aF0.15003880858421326
aF0.14947746694087982
aF0.148916095495224
aF0.14779339730739594
aF0.1472320258617401
aF0.1472320258617401
aF0.14610931277275085
aF0.14667066931724548
aF0.1472320258617401
aF0.148916095495224
aF0.15003880858421326
aF0.15172287821769714
aF0.1528456062078476
aF0.1550910323858261
aF0.1567751169204712
aF0.15845918655395508
aF0.16014325618743896
aF0.1607045978307724
aF0.16295002400875092
aF0.16407273709774017
aF0.16575680673122406
aF0.16631819307804108
aF0.1668795347213745
aF0.1668795347213745
asg11
I102
sba(iallograph.stroke
Stroke
p69
(dp70
g7
(lp71
F0.07397761940956116
aF0.07453897595405579
aF0.07566168904304504
aF0.0767844095826149
aF0.07846847921609879
aF0.07959118485450745
aF0.08127526193857193
aF0.08352068811655045
aF0.08520475775003433
aF0.08688882738351822
aF0.08969562500715256
aF0.09194105118513107
aF0.09362512081861496
aF0.09587055444717407
aF0.09811598062515259
aF0.09923869371414185
aF0.10148411989212036
aF0.10260684043169022
aF0.10372954607009888
aF0.10485226660966873
aF0.10653633624315262
aF0.10765904933214188
aF0.10878176242113113
aF0.10934311896562576
aF0.10990448296070099
aF0.11046583205461502
aF0.11046583205461502
aF0.10934311896562576
aF0.10878176242113113
aF0.1082204133272171
aF0.10653633624315262
aF0.10541362315416336
aF0.10372954607009888
aF0.10316819697618484
aF0.10148411989212036
aF0.1003614068031311
aF0.09980005025863647
aF0.09867733716964722
aF0.09811598062515259
aF0.09755462408065796
aF0.09699326753616333
aF0.09587055444717407
aF0.09530919790267944
aF0.09530919790267944
aF0.06611862033605576
aF0.06611862033605576
aF0.06611862033605576
asg9
(lp72
F0.18091346323490143
aF0.1803521066904068
aF0.1803521066904068
aF0.18091346323490143
aF0.18091346323490143
aF0.18091346323490143
aF0.18203617632389069
aF0.18203617632389069
aF0.18259753286838531
aF0.18259753286838531
aF0.18259753286838531
aF0.18315888941287994
aF0.18372024595737457
aF0.18372024595737457
aF0.18372024595737457
aF0.18372024595737457
aF0.1842816025018692
aF0.18484295904636383
aF0.18484295904636383
aF0.18484295904636383
aF0.18484295904636383
aF0.18484295904636383
aF0.18484295904636383
aF0.18484295904636383
aF0.18484295904636383
aF0.1842816025018692
aF0.18372024595737457
aF0.18259753286838531
aF0.18147481977939606
aF0.18091346323490143
aF0.17979075014591217
aF0.17866802215576172
aF0.17810668051242828
aF0.17754532396793365
aF0.1764226108789444
aF0.17586123943328857
aF0.17586123943328857
aF0.17586123943328857
aF0.17529988288879395
aF0.17529988288879395
aF0.1747385412454605
aF0.1747385412454605
aF0.1747385412454605
aF0.1747385412454605
aF0.1803521066904068
aF0.18147481977939606
aF0.18147481977939606
asg11
I47
sba(iallograph.stroke
Stroke
p73
(dp74
g7
(lp75
F0.042541615664958954
aF0.04310297593474388
aF0.044787049293518066
aF0.0453484021127224
aF0.045909758657217026
aF0.04759383574128151
aF0.04871654510498047
aF0.04983925819396973
aF0.05152333155274391
aF0.05489147827029228
aF0.0571369044482708
aF0.05938233062624931
aF0.06162776052951813
aF0.06275047361850739
aF0.0649959072470665
aF0.06667997688055038
aF0.06836404651403427
aF0.07060948014259338
aF0.07229354977607727
aF0.0728549063205719
aF0.07397761940956116
aF0.07510033249855042
aF0.07566168904304504
aF0.07622304558753967
aF0.0767844095826149
aF0.0767844095826149
aF0.050400614738464355
aF0.05208469182252884
aF0.0532074011862278
aF0.054330118000507355
aF0.05489147827029228
aF0.05601418763399124
aF0.0571369044482708
aF0.05769826099276543
aF0.05938233062624931
aF0.06050504744052887
aF0.06162776052951813
aF0.062189117074012756
aF0.06275047361850739
aF0.06331183761358261
aF0.06443454325199127
aF0.0649959072470665
aF0.06555726379156113
aF0.06667997688055038
aF0.06780268996953964
aF0.06780268996953964
aF0.06836404651403427
aF0.0689254105091095
aF0.0689254105091095
aF0.07004811614751816
aF0.07060948014259338
aF0.07117083668708801
aF0.07117083668708801
aF0.07173219323158264
aF0.07229354977607727
aF0.0728549063205719
aF0.07341626286506653
aF0.07341626286506653
asg9
(lp76
F0.21291081607341766
aF0.21234947443008423
aF0.21234947443008423
aF0.21234947443008423
aF0.21234947443008423
aF0.21234947443008423
aF0.21234947443008423
aF0.21234947443008423
aF0.21234947443008423
aF0.21234947443008423
aF0.21234947443008423
aF0.21234947443008423
aF0.21234947443008423
aF0.21234947443008423
aF0.21234947443008423
aF0.21234947443008423
aF0.21234947443008423
aF0.21234947443008423
aF0.21234947443008423
aF0.21234947443008423
aF0.21234947443008423
aF0.21234947443008423
aF0.21234947443008423
aF0.21234947443008423
aF0.21234947443008423
aF0.21234947443008423
aF0.22413796186447144
aF0.22245389223098755
aF0.2213311791419983
aF0.2196471095085144
aF0.21852438151836395
aF0.21796303987503052
aF0.21627897024154663
aF0.215717613697052
aF0.21515624225139618
aF0.21403354406356812
aF0.2134721726179123
aF0.21291081607341766
aF0.21291081607341766
aF0.21234947443008423
aF0.21234947443008423
aF0.21234947443008423
aF0.21234947443008423
aF0.21234947443008423
aF0.21291081607341766
aF0.2134721726179123
aF0.21403354406356812
aF0.21515624225139618
aF0.21627897024154663
aF0.2174016833305359
aF0.21852438151836395
aF0.21908575296401978
aF0.2196471095085144
aF0.22020845115184784
aF0.2213311791419983
aF0.2218925505876541
aF0.22245389223098755
aF0.22245389223098755
asg11
I58
sba(iallograph.stroke
Stroke
p77
(dp78
g7
(lp79
F0.05545283108949661
aF0.05545283108949661
aF0.05545283108949661
aF0.05489147827029228
aF0.053768761456012726
aF0.05208469182252884
aF0.05152333155274391
aF0.050400614738464355
aF0.049277905374765396
aF0.04871654510498047
aF0.04815518856048584
aF0.04647111892700195
aF0.045909758657217026
aF0.044787049293518066
aF0.042541615664958954
aF0.04085754603147507
aF0.03973482921719551
aF0.037489403039216995
aF0.03580532968044281
aF0.03468261659145355
aF0.033559903502464294
aF0.03131446987390518
aF0.029630402103066444
aF0.02794633060693741
aF0.026823615655303
aF0.025700898841023445
aF0.025139544159173965
aF0.024578185752034187
aF0.025700898841023445
aF0.026823615655303
aF0.029069043695926666
aF0.03187583014369011
aF0.034121256321668625
aF0.03636668622493744
aF0.03917347639799118
aF0.04310297593474388
aF0.04647111892700195
aF0.04871654510498047
aF0.05208469182252884
aF0.05601418763399124
aF0.058259617537260056
aF0.06050504744052887
aF0.06387318670749664
aF0.06555726379156113
aF0.06724133342504501
aF0.06836404651403427
aF0.06948675960302353
aF0.07060948014259338
aF0.07229354977607727
aF0.0728549063205719
aF0.07397761940956116
aF0.07510033249855042
aF0.07622304558753967
aF0.0767844095826149
aF0.07846847921609879
aF0.07902983576059341
aF0.07959118485450745
aF0.0807139053940773
aF0.08183661848306656
aF0.08239798247814178
aF0.08239798247814178
aF0.08239798247814178
aF0.08239798247814178
aF0.08127526193857193
aF0.0807139053940773
aF0.08015254884958267
aF0.08015254884958267
aF0.07959118485450745
aF0.07902983576059341
aF0.07846847921609879
aF0.07790711522102356
aF0.07790711522102356
asg9
(lp80
F0.2505217492580414
aF0.25220581889152527
aF0.2527671754360199
aF0.25388988852500916
aF0.2550126016139984
aF0.25557398796081543
aF0.25557398796081543
aF0.25613531470298767
aF0.25613531470298767
aF0.25613531470298767
aF0.25613531470298767
aF0.25613531470298767
aF0.25613531470298767
aF0.25613531470298767
aF0.25613531470298767
aF0.2550126016139984
aF0.2544512450695038
aF0.2544512450695038
aF0.2533285319805145
aF0.2533285319805145
aF0.25220581889152527
aF0.251083105802536
aF0.2505217492580414
aF0.2505217492580414
aF0.24939903616905212
aF0.2488376796245575
aF0.24827632308006287
aF0.24771496653556824
aF0.24771496653556824
aF0.24771496653556824
aF0.24771496653556824
aF0.24771496653556824
aF0.24771496653556824
aF0.24771496653556824
aF0.24771496653556824
aF0.24771496653556824
aF0.24771496653556824
aF0.24771496653556824
aF0.24827632308006287
aF0.24827632308006287
aF0.24939903616905212
aF0.24939903616905212
aF0.2505217492580414
aF0.2505217492580414
aF0.2505217492580414
aF0.251083105802536
aF0.251083105802536
aF0.251083105802536
aF0.25164446234703064
aF0.25164446234703064
aF0.25164446234703064
aF0.25164446234703064
aF0.25164446234703064
aF0.25164446234703064
aF0.25220581889152527
aF0.2527671754360199
aF0.2527671754360199
aF0.2527671754360199
aF0.2533285319805145
aF0.25388988852500916
aF0.25557398796081543
aF0.2566966712474823
aF0.2583807408809662
aF0.25950345396995544
aF0.2600648105144501
aF0.2611875534057617
aF0.26174888014793396
aF0.2628716230392456
aF0.2628716230392456
aF0.26343294978141785
aF0.26399433612823486
aF0.26399433612823486
asg11
I72
sba(iallograph.stroke
Stroke
p81
(dp82
g7
(lp83
F0.06443454325199127
aF0.06331183761358261
aF0.062189117074012756
aF0.06162776052951813
aF0.0610664039850235
aF0.0610664039850235
aF0.0610664039850235
aF0.06162776052951813
aF0.062189117074012756
aF0.06387318670749664
aF0.06443454325199127
aF0.06555726379156113
aF0.06667997688055038
aF0.06836404651403427
aF0.06948675960302353
aF0.07060948014259338
aF0.07117083668708801
aF0.0728549063205719
aF0.07341626286506653
aF0.07397761940956116
aF0.07510033249855042
aF0.07566168904304504
aF0.0767844095826149
aF0.07734576612710953
aF0.07790711522102356
aF0.07902983576059341
aF0.07959118485450745
aF0.08015254884958267
aF0.0807139053940773
aF0.08127526193857193
aF0.08183661848306656
aF0.08239798247814178
aF0.08239798247814178
aF0.08295933157205582
aF0.08295933157205582
aF0.08408205211162567
aF0.08408205211162567
aF0.08408205211162567
aF0.0846434086561203
aF0.08408205211162567
aF0.08295933157205582
aF0.08127526193857193
aF0.0807139053940773
aF0.08015254884958267
aF0.07959118485450745
aF0.07790711522102356
aF0.07734576612710953
aF0.0767844095826149
aF0.07566168904304504
aF0.07510033249855042
aF0.07453897595405579
aF0.07397761940956116
aF0.07341626286506653
aF0.0728549063205719
aF0.0728549063205719
aF0.07229354977607727
aF0.07173219323158264
aF0.07173219323158264
aF0.07117083668708801
aF0.07004811614751816
aF0.07004811614751816
aF0.07004811614751816
aF0.06948675960302353
aF0.0689254105091095
aF0.06836404651403427
aF0.06724133342504501
aF0.06667997688055038
aF0.06611862033605576
aF0.0649959072470665
aF0.06443454325199127
aF0.06387318670749664
aF0.06331183761358261
aF0.06331183761358261
aF0.06331183761358261
aF0.06443454325199127
aF0.0649959072470665
aF0.06611862033605576
aF0.06724133342504501
aF0.06780268996953964
aF0.06836404651403427
aF0.0689254105091095
aF0.06948675960302353
aF0.07060948014259338
aF0.07117083668708801
aF0.07173219323158264
aF0.0728549063205719
aF0.07341626286506653
aF0.07453897595405579
aF0.07566168904304504
aF0.07622304558753967
aF0.0767844095826149
aF0.07846847921609879
aF0.07902983576059341
aF0.07959118485450745
aF0.0807139053940773
aF0.08127526193857193
aF0.08183661848306656
aF0.08239798247814178
aF0.08352068811655045
aF0.08408205211162567
aF0.08408205211162567
aF0.08408205211162567
aF0.08408205211162567
aF0.08408205211162567
aF0.08408205211162567
aF0.08408205211162567
aF0.08408205211162567
aF0.08408205211162567
aF0.08408205211162567
aF0.08352068811655045
aF0.08352068811655045
aF0.08295933157205582
aF0.08183661848306656
aF0.08127526193857193
aF0.0807139053940773
aF0.08015254884958267
aF0.07790711522102356
aF0.07790711522102356
asg9
(lp84
F0.29486897587776184
aF0.29486897587776184
aF0.29486897587776184
aF0.29486897587776184
aF0.29543033242225647
aF0.2959916889667511
aF0.29711440205574036
aF0.2982371151447296
aF0.29879847168922424
aF0.29935982823371887
aF0.29935982823371887
aF0.29935982823371887
aF0.29935982823371887
aF0.30048254132270813
aF0.30048254132270813
aF0.30048254132270813
aF0.30048254132270813
aF0.30048254132270813
aF0.30048254132270813
aF0.30048254132270813
aF0.30048254132270813
aF0.30048254132270813
aF0.29935982823371887
aF0.29879847168922424
aF0.29879847168922424
aF0.2982371151447296
aF0.29711440205574036
aF0.2965530455112457
aF0.2959916889667511
aF0.29543033242225647
aF0.29486897587776184
aF0.2937462627887726
aF0.2926235496997833
aF0.2920621931552887
aF0.29150083661079407
aF0.2903781235218048
aF0.2898167669773102
aF0.28925538063049316
aF0.2881326973438263
aF0.2875713109970093
aF0.2875713109970093
aF0.2886940538883209
aF0.28925538063049316
aF0.2898167669773102
aF0.2903781235218048
aF0.29150083661079407
aF0.2926235496997833
aF0.29318490624427795
aF0.2937462627887726
aF0.2943076193332672
aF0.29486897587776184
aF0.29543033242225647
aF0.29543033242225647
aF0.2959916889667511
aF0.29711440205574036
aF0.297675758600235
aF0.29879847168922424
aF0.30048254132270813
aF0.30104389786720276
aF0.30272796750068665
aF0.3032893240451813
aF0.30441203713417053
aF0.3060961067676544
aF0.3072188198566437
aF0.3077802062034607
aF0.30834153294563293
aF0.30890288949012756
aF0.3094642758369446
aF0.3100256025791168
aF0.31058695912361145
aF0.31058695912361145
aF0.31114834547042847
aF0.31058695912361145
aF0.30890288949012756
aF0.3077802062034607
aF0.3072188198566437
aF0.3060961067676544
aF0.3055347502231598
aF0.30497339367866516
aF0.30441203713417053
aF0.3038506805896759
aF0.3032893240451813
aF0.30272796750068665
aF0.302166610956192
aF0.3016052544116974
aF0.3016052544116974
aF0.3016052544116974
aF0.30104389786720276
aF0.30048254132270813
aF0.2999211847782135
aF0.2999211847782135
aF0.29935982823371887
aF0.29935982823371887
aF0.29935982823371887
aF0.29935982823371887
aF0.29935982823371887
aF0.29935982823371887
aF0.29935982823371887
aF0.29935982823371887
aF0.2999211847782135
aF0.30104389786720276
aF0.3016052544116974
aF0.30272796750068665
aF0.30441203713417053
aF0.3072188198566437
aF0.3100256025791168
aF0.3117096722126007
aF0.3139551281929016
aF0.3150778114795685
aF0.3162005543708801
aF0.31676194071769714
aF0.3173232674598694
aF0.3173232674598694
aF0.317884624004364
aF0.317884624004364
aF0.317884624004364
aF0.31844595074653625
aF0.31844595074653625
asg11
I118
sbasg40
(lp85
(lp86
I1
aI0
aI0
aI0
aI0
aI0
aI0
aI0
aI0
aI0
aI0
aI0
aI0
aI0
aI0
aI0
aI0
aI0
aI0
aI0
aI0
aI0
aI0
aI0
aI0
aI0
aI1
aI0
aI0
aI0
aI0
aI0
aI0
aI0
aI0
aI0
aI0
aI0
aI0
aI0
aI0
aI0
aI0
aI0
aI0
aI0
aa(lp87
I1
aI0
aI0
aI0
aI0
aI0
aI0
aI0
aI0
aI0
aI0
aI0
aI0
aI0
aI0
aI0
aI0
aI0
aI0
aI0
aI0
aI0
aI0
aI0
aI0
aI0
aI0
aI0
aI0
aI0
aI0
aI0
aI0
aI0
aI0
aI0
aI1
aI0
aa(lp88
I1
aI0
aI0
aI0
aI0
aI0
aI0
aI0
aI0
aI0
aI0
aI0
aI0
aI0
aI0
aI0
aI0
aI0
aI0
aI0
aI0
aI0
aI0
aI0
aI0
aI0
aI0
aI0
aI0
aI0
aI0
aI0
aI0
aI0
aI0
aI0
aI0
aI0
aI0
aI0
aI0
aI0
aI0
aI0
aI0
aI0
aI0
aI0
aI0
aI0
aI0
aI0
aI0
aI0
aI0
aI0
aI0
aI0
aI0
aI0
aI0
aI0
aI0
aI0
aI0
aI0
aI0
aI0
aI0
aI0
aI0
aI0
aI0
aI0
aI0
aI0
aI0
aI0
aI0
aI0
aI0
aI0
aI0
aI0
aI0
aI0
aI0
aI0
aI0
aI0
aI0
aI0
aI0
aI0
aI0
aI0
aI0
aI0
aI0
aI0
aI0
aI0
aI0
aI0
aI0
aI0
aI0
aI0
aI0
aI0
aI0
aI0
aI0
aI0
aI0
aI0
aI0
aI0
aI0
aI0
aI0
aI0
aI0
aI0
aI0
aI0
aI0
aa(lp89
I1
aI0
aI0
aI0
aI0
aI0
aI0
aI0
aI0
aI0
aI0
aI0
aI0
aI0
aI0
aI0
aI0
aI0
aI0
aI0
aI0
aI0
aI0
aI0
aI0
aI0
aI0
aI0
aI0
aI0
aI0
aI0
aI0
aI0
aI0
aI0
aI0
aI0
aI0
aI0
aI0
aI0
aI0
aI0
aI0
aI0
aI0
aI0
aI0
aI0
aI0
aI0
aI0
aI0
aI0
aI0
aI0
aI0
aI0
aI0
aI0
aI0
aI0
aI0
aI0
aI0
aI0
aI0
aI0
aI0
aI0
aI0
aI0
aI0
aI0
aI0
aI0
aI0
aI0
aI0
aI0
aI0
aI0
aI0
aI0
aI0
aI0
aI0
aI0
aI0
aI0
aI0
aI0
aI0
aI0
aI0
aI0
aI0
aI0
aI0
aI0
aI0
aa(lp90
I1
aI0
aI0
aI0
aI0
aI0
aI0
aI0
aI0
aI0
aI0
aI0
aI0
aI0
aI0
aI0
aI0
aI0
aI0
aI0
aI0
aI0
aI0
aI0
aI0
aI0
aI0
aI0
aI0
aI0
aI0
aI0
aI0
aI0
aI0
aI0
aI0
aI0
aI0
aI0
aI0
aI0
aI0
aI0
aI1
aI0
aI0
aa(lp91
I1
aI0
aI0
aI0
aI0
aI0
aI0
aI0
aI0
aI0
aI0
aI0
aI0
aI0
aI0
aI0
aI0
aI0
aI0
aI0
aI0
aI0
aI0
aI0
aI0
aI0
aI1
aI0
aI0
aI0
aI0
aI0
aI0
aI0
aI0
aI0
aI0
aI0
aI0
aI0
aI0
aI0
aI0
aI0
aI0
aI0
aI0
aI0
aI0
aI0
aI0
aI0
aI0
aI0
aI0
aI0
aI0
aI0
aa(lp92
I1
aI0
aI0
aI0
aI0
aI0
aI0
aI0
aI0
aI0
aI0
aI0
aI0
aI0
aI0
aI0
aI0
aI0
aI0
aI0
aI0
aI0
aI0
aI0
aI0
aI0
aI0
aI0
aI0
aI0
aI0
aI0
aI0
aI0
aI0
aI0
aI0
aI0
aI0
aI0
aI0
aI0
aI0
aI0
aI0
aI0
aI0
aI0
aI0
aI0
aI0
aI0
aI0
aI0
aI0
aI0
aI0
aI0
aI0
aI0
aI0
aI0
aI0
aI0
aI0
aI0
aI0
aI0
aI0
aI0
aI0
aI0
aa(lp93
I1
aI0
aI0
aI0
aI0
aI0
aI0
aI0
aI0
aI0
aI0
aI0
aI0
aI0
aI0
aI0
aI0
aI0
aI0
aI0
aI0
aI0
aI0
aI0
aI0
aI0
aI0
aI0
aI0
aI0
aI0
aI0
aI0
aI0
aI0
aI0
aI0
aI0
aI0
aI0
aI0
aI0
aI0
aI0
aI0
aI0
aI0
aI0
aI0
aI0
aI0
aI0
aI0
aI0
aI0
aI0
aI0
aI0
aI0
aI0
aI0
aI0
aI0
aI0
aI0
aI0
aI0
aI0
aI0
aI0
aI0
aI0
aI0
aI0
aI0
aI0
aI0
aI0
aI0
aI0
aI0
aI0
aI0
aI0
aI0
aI0
aI0
aI0
aI0
aI0
aI0
aI0
aI0
aI0
aI0
aI0
aI0
aI0
aI0
aI0
aI0
aI0
aI0
aI0
aI0
aI0
aI0
aI0
aI0
aI0
aI0
aI0
aI0
aI0
aI0
aI0
aI0
aI0
aassS'john_doe'
p94
(dp95
g3
(lp96
(iallograph.stroke
Stroke
p97
(dp98
g7
(lp99
F0.04279186204075813
aF0.0433453731238842
aF0.04555940255522728
aF0.04777342081069946
aF0.04943393915891647
aF0.051647964864969254
aF0.054415494203567505
aF0.056076012551784515
aF0.057183027267456055
aF0.059397049248218536
aF0.06050406023859978
aF0.06271808594465256
aF0.06327158957719803
aF0.06493210792541504
aF0.06603912264108658
aF0.06714612990617752
aF0.06825314462184906
aF0.06880664825439453
aF0.07046717405319214
aF0.07157418131828308
aF0.07212769240140915
aF0.07268119603395462
aF0.07323469966650009
aF0.07323469966650009
aF0.07323469966650009
aF0.07268119603395462
aF0.07268119603395462
aF0.07212769240140915
aF0.07157418131828308
aF0.07157418131828308
aF0.07157418131828308
aF0.07046717405319214
aF0.07046717405319214
aF0.06991366297006607
aF0.0693601593375206
aF0.0693601593375206
aF0.06880664825439453
aF0.06769964098930359
aF0.06769964098930359
aF0.057736530900001526
aF0.055522508919239044
aF0.054415494203567505
aF0.05220147222280502
aF0.048880431801080704
aF0.04666640982031822
aF0.04611290246248245
aF0.04500589147210121
aF0.04445238411426544
aF0.04389888420701027
aF0.0433453731238842
aF0.04279186204075813
aF0.04223836213350296
aF0.04168485477566719
aF0.04168485477566719
aF0.04168485477566719
aF0.04168485477566719
asg9
(lp100
F0.058199990540742874
aF0.057646483182907104
aF0.057646483182907104
aF0.057646483182907104
aF0.057646483182907104
aF0.057646483182907104
aF0.057092975825071335
aF0.057092975825071335
aF0.057092975825071335
aF0.057092975825071335
aF0.057092975825071335
aF0.057092975825071335
aF0.057092975825071335
aF0.057092975825071335
aF0.057092975825071335
aF0.057092975825071335
aF0.057092975825071335
aF0.057092975825071335
aF0.057092975825071335
aF0.058199990540742874
aF0.058753494173288345
aF0.059307001531124115
aF0.059860508888959885
aF0.060414012521505356
aF0.0615210235118866
aF0.06262803822755814
aF0.06373504549264908
aF0.06484206020832062
aF0.0670560821890831
aF0.06760959327220917
aF0.06927011162042618
aF0.07093062996864319
aF0.07148413360118866
aF0.0725911483168602
aF0.07314465194940567
aF0.07425166666507721
aF0.07480517029762268
aF0.07480517029762268
aF0.07480517029762268
aF0.05321843549609184
aF0.054325442761182785
aF0.055432457476854324
aF0.057646483182907104
aF0.060967519879341125
aF0.06373504549264908
aF0.06539556384086609
aF0.0670560821890831
aF0.06760959327220917
aF0.06927011162042618
aF0.07037711888551712
aF0.07093062996864319
aF0.07148413360118866
aF0.07203763723373413
aF0.0725911483168602
aF0.07314465194940567
aF0.07314465194940567
asg11
I56
sba(iallograph.stroke
Stroke
p101
(dp102
g7
(lp103
F0.06769964098930359
aF0.06880664825439453
aF0.06991366297006607
aF0.07046717405319214
aF0.07212769240140915
aF0.07323469966650009
aF0.07378821074962616
aF0.07544872909784317
aF0.07655573636293411
aF0.07821625471115112
aF0.07876976579427719
aF0.07932326942682266
aF0.08043026924133301
aF0.08209078758955002
aF0.08319780975580215
aF0.08375130593776703
aF0.08430483192205429
aF0.08541183173656464
aF0.08430483192205429
aF0.08430483192205429
aF0.06161107122898102
aF0.06161107122898102
asg9
(lp104
F0.09251736104488373
aF0.09196386486291885
aF0.09196386486291885
aF0.09196386486291885
aF0.09196386486291885
aF0.09141035377979279
aF0.09141035377979279
aF0.09141035377979279
aF0.09141035377979279
aF0.09085684269666672
aF0.09085684269666672
aF0.09085684269666672
aF0.09085684269666672
aF0.08919632434844971
aF0.08919632434844971
aF0.08864282816648483
aF0.08864282816648483
aF0.08808931708335876
aF0.08808931708335876
aF0.08808931708335876
aF0.09141035377979279
aF0.09141035377979279
asg11
I22
sba(iallograph.stroke
Stroke
p105
(dp106
g7
(lp107
F0.10257052630186081
aF0.10201701521873474
aF0.1009100079536438
aF0.09980299323797226
aF0.09869597852230072
aF0.09758896380662918
aF0.09482143819332123
aF0.09316091984510422
aF0.09150040149688721
aF0.09039338678121567
aF0.08817936480045319
aF0.08541183173656464
aF0.08485832810401917
aF0.08264430612325668
aF0.08043026924133301
aF0.07821625471115112
aF0.07655573636293411
aF0.07434171438217163
aF0.07268119603395462
aF0.07157418131828308
aF0.07102067768573761
aF0.06991366297006607
aF0.07212769240140915
aF0.07434171438217163
aF0.07600223273038864
aF0.07876976579427719
aF0.08098378777503967
aF0.08541183173656464
aF0.08928637206554413
aF0.09371442347764969
aF0.09758896380662918
aF0.1009100079536438
aF0.10367753356695175
aF0.10699857026338577
aF0.10921259969472885
aF0.11087311804294586
aF0.11308713257312775
aF0.11419415473937988
aF0.11474765092134476
aF0.11640816926956177
aF0.11696168035268784
aF0.1175151839852333
aF0.11862219870090485
aF0.11917570233345032
aF0.11696168035268784
aF0.11530116200447083
aF0.11308713257312775
aF0.10976609587669373
aF0.10533805191516876
aF0.10146351158618927
aF0.09703546017408371
aF0.09316091984510422
aF0.08873286843299866
aF0.08651884645223618
aF0.08319780975580215
aF0.07987677305936813
aF0.07710924744606018
aF0.07378821074962616
aF0.07212769240140915
aF0.07046717405319214
aF0.06991366297006607
aF0.0693601593375206
aF0.06825314462184906
aF0.06769964098930359
aF0.06825314462184906
aF0.06880664825439453
aF0.07046717405319214
aF0.07268119603395462
aF0.07378821074962616
aF0.07600223273038864
aF0.07710924744606018
aF0.07876976579427719
aF0.07987677305936813
aF0.08098378777503967
aF0.08209078758955002
aF0.08264430612325668
aF0.08375130593776703
aF0.08430483192205429
aF0.08430483192205429
aF0.08430483192205429
aF0.08375130593776703
aF0.08264430612325668
aF0.08098378777503967
aF0.08098378777503967
asg9
(lp108
F0.10856904089450836
aF0.10856904089450836
aF0.10856904089450836
aF0.10856904089450836
aF0.1096760481595993
aF0.11022955924272537
aF0.11189007759094238
aF0.1135505959391594
aF0.11465760320425034
aF0.11576462537050247
aF0.11687163263559341
aF0.11853215098381042
aF0.11908566206693649
aF0.11963915824890137
aF0.12019266933202744
aF0.12129967659711838
aF0.12129967659711838
aF0.12129967659711838
aF0.12129967659711838
aF0.12129967659711838
aF0.12129967659711838
aF0.12129967659711838
aF0.12129967659711838
aF0.12129967659711838
aF0.12129967659711838
aF0.12129967659711838
aF0.12129967659711838
aF0.12129967659711838
aF0.1207461804151535
aF0.1207461804151535
aF0.11963915824890137
aF0.11963915824890137
aF0.11853215098381042
aF0.11853215098381042
aF0.11853215098381042
aF0.11853215098381042
aF0.11742514371871948
aF0.11742514371871948
aF0.11742514371871948
aF0.11742514371871948
aF0.11742514371871948
aF0.11742514371871948
aF0.11742514371871948
aF0.11687163263559341
aF0.11687163263559341
aF0.11687163263559341
aF0.11742514371871948
aF0.11853215098381042
aF0.11963915824890137
aF0.12185318768024445
aF0.12296019494533539
aF0.12351369857788086
aF0.12517420947551727
aF0.12517420947551727
aF0.1262812316417694
aF0.1262812316417694
aF0.1262812316417694
aF0.12683473527431488
aF0.12683473527431488
aF0.12683473527431488
aF0.12683473527431488
aF0.12683473527431488
aF0.12738825380802155
aF0.12794175744056702
aF0.12904876470565796
aF0.12904876470565796
aF0.12904876470565796
aF0.12904876470565796
aF0.12904876470565796
aF0.12960226833820343
aF0.12960226833820343
aF0.12960226833820343
aF0.12960226833820343
aF0.1301557868719101
aF0.1301557868719101
aF0.1301557868719101
aF0.1301557868719101
aF0.13070927560329437
aF0.13126279413700104
aF0.1318162977695465
aF0.13292330503463745
aF0.1340303122997284
aF0.13513731956481934
aF0.13513731956481934
asg11
I84
sba(iallograph.stroke
Stroke
p109
(dp110
g7
(lp111
F0.06437860429286957
aF0.0638250932097435
aF0.06271808594465256
aF0.06161107122898102
aF0.06105756759643555
aF0.058843545615673065
aF0.05662951618432999
aF0.055522508919239044
aF0.053308483213186264
aF0.051094457507133484
aF0.048880431801080704
aF0.04721991345286369
aF0.04555940255522728
aF0.04500589147210121
aF0.04445238411426544
aF0.04279186204075813
aF0.04223836213350296
aF0.04168485477566719
aF0.04057784378528595
aF0.04002433642745018
aF0.03947083279490471
aF0.04002433642745018
aF0.04113135114312172
aF0.04223836213350296
aF0.04389888420701027
aF0.04555940255522728
aF0.04777342081069946
aF0.05054095387458801
aF0.05220147222280502
aF0.054968997836112976
aF0.057183027267456055
aF0.058843545615673065
aF0.06050406023859978
aF0.06271808594465256
aF0.06493210792541504
aF0.06659262627363205
aF0.06825314462184906
aF0.07046717405319214
aF0.07268119603395462
aF0.07378821074962616
aF0.07434171438217163
aF0.07544872909784317
aF0.07655573636293411
aF0.07710924744606018
aF0.07821625471115112
aF0.07821625471115112
aF0.07268119603395462
aF0.07212769240140915
aF0.07157418131828308
aF0.07157418131828308
aF0.07102067768573761
aF0.07046717405319214
aF0.07046717405319214
aF0.06991366297006607
aF0.06991366297006607
aF0.0693601593375206
aF0.0693601593375206
aF0.06880664825439453
aF0.06880664825439453
aF0.06769964098930359
aF0.06769964098930359
aF0.06769964098930359
aF0.06714612990617752
aF0.06714612990617752
asg9
(lp112
F0.154510036110878
aF0.154510036110878
aF0.154510036110878
aF0.15506355464458466
aF0.15506355464458466
aF0.15672406554222107
aF0.15727758407592773
aF0.1578310877084732
aF0.1578310877084732
aF0.1578310877084732
aF0.1578310877084732
aF0.1578310877084732
aF0.1578310877084732
aF0.1578310877084732
aF0.1578310877084732
aF0.1578310877084732
aF0.1578310877084732
aF0.15727758407592773
aF0.15727758407592773
aF0.15672406554222107
aF0.1561705619096756
aF0.15561705827713013
aF0.15561705827713013
aF0.15506355464458466
aF0.15506355464458466
aF0.154510036110878
aF0.154510036110878
aF0.15340302884578705
aF0.15340302884578705
aF0.15340302884578705
aF0.15284952521324158
aF0.15284952521324158
aF0.15284952521324158
aF0.15284952521324158
aF0.15284952521324158
aF0.1522960215806961
aF0.1522960215806961
aF0.1522960215806961
aF0.1522960215806961
aF0.1522960215806961
aF0.1522960215806961
aF0.1522960215806961
aF0.1522960215806961
aF0.1522960215806961
aF0.1522960215806961
aF0.1522960215806961
aF0.14620745182037354
aF0.14620745182037354
aF0.146760955452919
aF0.14731445908546448
aF0.14786796271800995
aF0.1484214812517166
aF0.14897498488426208
aF0.1506355106830597
aF0.15118899941444397
aF0.15174251794815063
aF0.1539565473794937
aF0.1561705619096756
aF0.15727758407592773
aF0.15893808007240295
aF0.16115212440490723
aF0.1617056280374527
aF0.16225911676883698
aF0.16225911676883698
asg11
I64
sba(iallograph.stroke
Stroke
p113
(dp114
g7
(lp115
F0.07766275107860565
aF0.07655573636293411
aF0.07600223273038864
aF0.07544872909784317
aF0.0748952180147171
aF0.07378821074962616
aF0.07268119603395462
aF0.07212769240140915
aF0.07046717405319214
aF0.0693601593375206
aF0.06825314462184906
aF0.06769964098930359
aF0.06659262627363205
aF0.06659262627363205
aF0.06659262627363205
aF0.06659262627363205
aF0.06769964098930359
aF0.0693601593375206
aF0.07102067768573761
aF0.07378821074962616
aF0.07876976579427719
aF0.08430483192205429
aF0.0898398831486702
aF0.09592844545841217
aF0.10146351158618927
aF0.10699857026338577
aF0.10976609587669373
aF0.11308713257312775
aF0.11640816926956177
aF0.11972920596599579
aF0.12305024266242981
aF0.12581777572631836
aF0.1269247978925705
aF0.1285853087902069
aF0.12913881242275238
aF0.13024581968784332
aF0.1307993233203888
aF0.13135284185409546
aF0.13135284185409546
aF0.1307993233203888
aF0.12969231605529785
aF0.12747828662395477
aF0.12471076101064682
aF0.12305024266242981
aF0.12028271704912186
aF0.11640816926956177
aF0.11364064365625381
aF0.1103196069598198
aF0.10755208134651184
aF0.10423104465007782
aF0.10257052630186081
aF0.10146351158618927
aF0.10035649687051773
aF0.09869597852230072
aF0.09758896380662918
aF0.09592844545841217
aF0.0953749418258667
aF0.09482143819332123
aF0.09371442347764969
aF0.09316091984510422
aF0.09260740876197815
aF0.09205390512943268
aF0.09094689041376114
aF0.09039338678121567
aF0.0898398831486702
aF0.08873286843299866
aF0.08817936480045319
aF0.08762585371732712
aF0.08762585371732712
aF0.08707235008478165
aF0.08651884645223618
aF0.0859653502702713
aF0.08541183173656464
aF0.08485832810401917
aF0.08375130593776703
aF0.08264430612325668
aF0.08264430612325668
aF0.059397049248218536
aF0.059397049248218536
asg9
(lp116
F0.17720378935337067
aF0.17720378935337067
aF0.17720378935337067
aF0.17720378935337067
aF0.17720378935337067
aF0.17720378935337067
aF0.17720378935337067
aF0.17720378935337067
aF0.1783108115196228
aF0.17941780388355255
aF0.17941780388355255
aF0.17997130751609802
aF0.18107834458351135
aF0.18163184821605682
aF0.1821853518486023
aF0.18329234421253204
aF0.18439938127994537
aF0.18495288491249084
aF0.18495288491249084
aF0.18550638854503632
aF0.18661338090896606
aF0.1877204030752182
aF0.1877204030752182
aF0.1877204030752182
aF0.18827392160892487
aF0.18938091397285461
aF0.18938091397285461
aF0.18938091397285461
aF0.18938091397285461
aF0.18938091397285461
aF0.18938091397285461
aF0.18938091397285461
aF0.18938091397285461
aF0.18938091397285461
aF0.18938091397285461
aF0.18827392160892487
aF0.18827392160892487
aF0.1877204030752182
aF0.18716689944267273
aF0.1860598772764206
aF0.18495288491249084
aF0.1838458627462387
aF0.18273884057998657
aF0.1821853518486023
aF0.1821853518486023
aF0.18163184821605682
aF0.18163184821605682
aF0.18163184821605682
aF0.18163184821605682
aF0.18163184821605682
aF0.18163184821605682
aF0.18163184821605682
aF0.18163184821605682
aF0.1821853518486023
aF0.18273884057998657
aF0.1838458627462387
aF0.1838458627462387
aF0.18439938127994537
aF0.18550638854503632
aF0.1860598772764206
aF0.1860598772764206
aF0.18661338090896606
aF0.18716689944267273
aF0.18827392160892487
aF0.18882742524147034
aF0.18938091397285461
aF0.18993441760540009
aF0.19048793613910675
aF0.19104143977165222
aF0.19214846193790436
aF0.19270196557044983
aF0.1932554543018341
aF0.19380897283554077
aF0.19436247646808624
aF0.1949159950017929
aF0.1949159950017929
aF0.1949159950017929
aF0.18716689944267273
aF0.18716689944267273
asg11
I79
sba(iallograph.stroke
Stroke
p117
(dp118
g7
(lp119
F0.051647964864969254
aF0.051647964864969254
aF0.051647964864969254
aF0.051094457507133484
aF0.05054095387458801
aF0.04998744651675224
aF0.04998744651675224
aF0.04943393915891647
aF0.04832692816853523
aF0.04721991345286369
aF0.04611290246248245
aF0.04445238411426544
aF0.04279186204075813
aF0.04113135114312172
aF0.03947083279490471
aF0.03836381807923317
aF0.03614979237318039
aF0.03448927402496338
aF0.03393577039241791
aF0.03338226303458214
aF0.03282875940203667
aF0.03448927402496338
aF0.03725680708885193
aF0.04168485477566719
aF0.04611290246248245
aF0.05054095387458801
aF0.053861990571022034
aF0.057736530900001526
aF0.06216457858681679
aF0.06659262627363205
aF0.07157418131828308
aF0.07600223273038864
aF0.08043026924133301
aF0.08485832810401917
aF0.08873286843299866
aF0.09094689041376114
aF0.09260740876197815
aF0.09371442347764969
aF0.0953749418258667
aF0.09648195654153824
aF0.09758896380662918
aF0.09814247488975525
aF0.09869597852230072
aF0.09814247488975525
aF0.09592844545841217
aF0.09426792711019516
aF0.08873286843299866
aF0.08485832810401917
aF0.07932326942682266
aF0.07600223273038864
aF0.07212769240140915
aF0.0693601593375206
aF0.06825314462184906
aF0.06659262627363205
aF0.06548561155796051
aF0.06493210792541504
aF0.06327158957719803
aF0.06271808594465256
aF0.06271808594465256
aF0.06216457858681679
aF0.06161107122898102
aF0.06161107122898102
aF0.06161107122898102
aF0.06161107122898102
aF0.06161107122898102
aF0.06216457858681679
aF0.06271808594465256
aF0.06327158957719803
aF0.06327158957719803
aF0.06327158957719803
aF0.0638250932097435
aF0.0638250932097435
aF0.0638250932097435
aF0.06437860429286957
aF0.06493210792541504
aF0.06548561155796051
aF0.06603912264108658
aF0.06659262627363205
aF0.06714612990617752
aF0.06880664825439453
aF0.0693601593375206
aF0.06991366297006607
aF0.07046717405319214
aF0.07102067768573761
aF0.07157418131828308
aF0.07157418131828308
aF0.07212769240140915
aF0.07212769240140915
aF0.07212769240140915
aF0.07212769240140915
aF0.07212769240140915
aF0.07212769240140915
aF0.07212769240140915
aF0.07268119603395462
aF0.07268119603395462
aF0.07268119603395462
aF0.07268119603395462
asg9
(lp120
F0.21152116358280182
aF0.21262818574905396
aF0.2137351930141449
aF0.21484220027923584
aF0.21594922244548798
aF0.21650271117687225
aF0.21705621480941772
aF0.21871674060821533
aF0.21982376277446747
aF0.22037725150585175
aF0.2209307700395584
aF0.22203777730464935
aF0.22203777730464935
aF0.22203777730464935
aF0.22259129583835602
aF0.22259129583835602
aF0.22259129583835602
aF0.22259129583835602
aF0.22259129583835602
aF0.22259129583835602
aF0.22259129583835602
aF0.22259129583835602
aF0.22203777730464935
aF0.2209307700395584
aF0.219270259141922
aF0.21816323697566986
aF0.21816323697566986
aF0.21705621480941772
aF0.21594922244548798
aF0.2153957188129425
aF0.21262818574905396
aF0.21262818574905396
aF0.21207468211650848
aF0.21207468211650848
aF0.21096765995025635
aF0.20930714905261993
aF0.20930714905261993
aF0.20930714905261993
aF0.20875364542007446
aF0.2082001268863678
aF0.2082001268863678
aF0.2082001268863678
aF0.2082001268863678
aF0.2082001268863678
aF0.2082001268863678
aF0.2082001268863678
aF0.2098606377840042
aF0.21096765995025635
aF0.21207468211650848
aF0.21207468211650848
aF0.21318167448043823
aF0.2137351930141449
aF0.2137351930141449
aF0.2137351930141449
aF0.21428869664669037
aF0.21428869664669037
aF0.21484220027923584
aF0.2153957188129425
aF0.21594922244548798
aF0.21650271117687225
aF0.21705621480941772
aF0.2176097333431244
aF0.21871674060821533
aF0.219270259141922
aF0.21982376277446747
aF0.22037725150585175
aF0.219270259141922
aF0.21871674060821533
aF0.21705621480941772
aF0.2153957188129425
aF0.21428869664669037
aF0.21318167448043823
aF0.21262818574905396
aF0.21152116358280182
aF0.21096765995025635
aF0.21096765995025635
aF0.21041415631771088
aF0.21041415631771088
aF0.21041415631771088
aF0.21096765995025635
aF0.21152116358280182
aF0.21318167448043823
aF0.2137351930141449
aF0.2153957188129425
aF0.21650271117687225
aF0.21705621480941772
aF0.2176097333431244
aF0.21871674060821533
aF0.219270259141922
aF0.21982376277446747
aF0.22148427367210388
aF0.22203777730464935
aF0.22259129583835602
aF0.2231447994709015
aF0.2248053103685379
aF0.22535881400108337
aF0.22535881400108337
asg11
I97
sba(iallograph.stroke
Stroke
p121
(dp122
g7
(lp123
F0.058843545615673065
aF0.05995055288076401
aF0.06050406023859978
aF0.05995055288076401
aF0.058290034532547
aF0.057183027267456055
aF0.055522508919239044
aF0.054415494203567505
aF0.052754975855350494
aF0.051094457507133484
aF0.04943393915891647
aF0.04832692816853523
aF0.04666640982031822
aF0.04555940255522728
aF0.04500589147210121
aF0.04389888420701027
aF0.04279186204075813
aF0.04223836213350296
aF0.04113135114312172
aF0.04057784378528595
aF0.04057784378528595
aF0.04057784378528595
aF0.04057784378528595
aF0.04168485477566719
aF0.0433453731238842
aF0.04500589147210121
aF0.04666640982031822
aF0.04943393915891647
aF0.05054095387458801
aF0.05220147222280502
aF0.054415494203567505
aF0.055522508919239044
aF0.057183027267456055
aF0.058843545615673065
aF0.05995055288076401
aF0.06105756759643555
aF0.06271808594465256
aF0.0638250932097435
aF0.06548561155796051
aF0.06603912264108658
aF0.06714612990617752
aF0.06880664825439453
aF0.06991366297006607
aF0.07102067768573761
aF0.07157418131828308
aF0.07268119603395462
aF0.07434171438217163
aF0.0748952180147171
aF0.0748952180147171
aF0.0748952180147171
aF0.0748952180147171
aF0.07544872909784317
aF0.07655573636293411
aF0.07655573636293411
aF0.07655573636293411
asg9
(lp124
F0.25026658177375793
aF0.25026658177375793
aF0.2508201003074646
aF0.25192710757255554
aF0.2524805963039398
aF0.25358763337135315
aF0.25358763337135315
aF0.25358763337135315
aF0.25358763337135315
aF0.25358763337135315
aF0.25358763337135315
aF0.2530341148376465
aF0.2530341148376465
aF0.2524805963039398
aF0.25192710757255554
aF0.25192710757255554
aF0.25137361884117126
aF0.25026658177375793
aF0.24971309304237366
aF0.249159574508667
aF0.24860607087612152
aF0.24805256724357605
aF0.24749904870986938
aF0.24639205634593964
aF0.24639205634593964
aF0.24639205634593964
aF0.24639205634593964
aF0.24639205634593964
aF0.24639205634593964
aF0.24639205634593964
aF0.24639205634593964
aF0.24639205634593964
aF0.24639205634593964
aF0.24639205634593964
aF0.24639205634593964
aF0.24639205634593964
aF0.2469455599784851
aF0.2469455599784851
aF0.24805256724357605
aF0.24805256724357605
aF0.24805256724357605
aF0.24805256724357605
aF0.24860607087612152
aF0.24860607087612152
aF0.24860607087612152
aF0.249159574508667
aF0.24971309304237366
aF0.25026658177375793
aF0.2508201003074646
aF0.25192710757255554
aF0.2541411221027374
aF0.25746217370033264
aF0.26299723982810974
aF0.2696392834186554
aF0.2746208608150482
asg11
I55
sba(iallograph.stroke
Stroke
p125
(dp126
g7
(lp127
F0.07655573636293411
aF0.07655573636293411
aF0.07655573636293411
aF0.07655573636293411
aF0.07600223273038864
aF0.07600223273038864
aF0.0638250932097435
aF0.06437860429286957
aF0.06548561155796051
aF0.06714612990617752
aF0.06880664825439453
aF0.07046717405319214
aF0.07212769240140915
aF0.07378821074962616
aF0.0748952180147171
aF0.07600223273038864
aF0.07710924744606018
aF0.07821625471115112
aF0.07876976579427719
aF0.07987677305936813
aF0.08043026924133301
aF0.08098378777503967
aF0.08153729140758514
aF0.08043026924133301
aF0.07932326942682266
aF0.07932326942682266
aF0.06327158957719803
aF0.06437860429286957
aF0.06548561155796051
aF0.06603912264108658
aF0.06769964098930359
aF0.06880664825439453
aF0.0693601593375206
aF0.07046717405319214
aF0.07157418131828308
aF0.07268119603395462
aF0.07378821074962616
aF0.07434171438217163
aF0.0748952180147171
aF0.07544872909784317
aF0.07544872909784317
aF0.07600223273038864
aF0.07655573636293411
aF0.07710924744606018
aF0.07766275107860565
aF0.07766275107860565
aF0.07766275107860565
asg9
(lp128
F0.2768348753452301
aF0.2784954011440277
aF0.2790489196777344
aF0.2807094156742096
aF0.28126293420791626
aF0.28126293420791626
aF0.30561721324920654
aF0.30340316891670227
aF0.30229616165161133
aF0.30174264311790466
aF0.3006356358528137
aF0.2995286285877228
aF0.29842162132263184
aF0.2973146140575409
aF0.29676109552383423
aF0.29620757699012756
aF0.2951005697250366
aF0.29454708099365234
aF0.2939935624599457
aF0.2939935624599457
aF0.2934400737285614
aF0.2934400737285614
aF0.29288655519485474
aF0.29233306646347046
aF0.29233306646347046
aF0.29233306646347046
aF0.28845852613449097
aF0.2895655035972595
aF0.29067254066467285
aF0.29067254066467285
aF0.29122602939605713
aF0.29233306646347046
aF0.29288655519485474
aF0.2934400737285614
aF0.2951005697250366
aF0.2956540882587433
aF0.29676109552383423
aF0.2973146140575409
aF0.29786810278892517
aF0.29842162132263184
aF0.2989751398563385
aF0.3006356358528137
aF0.3011891543865204
aF0.30229616165161133
aF0.302849680185318
aF0.30340316891670227
aF0.30340316891670227
asg11
I47
sbasg40
(lp129
(lp130
I1
aI0
aI0
aI0
aI0
aI0
aI0
aI0
aI0
aI0
aI0
aI0
aI0
aI0
aI0
aI0
aI0
aI0
aI0
aI0
aI0
aI0
aI0
aI0
aI0
aI0
aI0
aI0
aI0
aI0
aI0
aI0
aI0
aI0
aI0
aI0
aI0
aI0
aI0
aI1
aI0
aI0
aI0
aI0
aI0
aI0
aI0
aI0
aI0
aI0
aI0
aI0
aI0
aI0
aI0
aI0
aa(lp131
I1
aI0
aI0
aI0
aI0
aI0
aI0
aI0
aI0
aI0
aI0
aI0
aI0
aI0
aI0
aI0
aI0
aI0
aI0
aI0
aI1
aI0
aa(lp132
I1
aI0
aI0
aI0
aI0
aI0
aI0
aI0
aI0
aI0
aI0
aI0
aI0
aI0
aI0
aI0
aI0
aI0
aI0
aI0
aI0
aI0
aI0
aI0
aI0
aI0
aI0
aI0
aI0
aI0
aI0
aI0
aI0
aI0
aI0
aI0
aI0
aI0
aI0
aI0
aI0
aI0
aI0
aI0
aI0
aI0
aI0
aI0
aI0
aI0
aI0
aI0
aI0
aI0
aI0
aI0
aI0
aI0
aI0
aI0
aI0
aI0
aI0
aI0
aI0
aI0
aI0
aI0
aI0
aI0
aI0
aI0
aI0
aI0
aI0
aI0
aI0
aI0
aI0
aI0
aI0
aI0
aI0
aI0
aa(lp133
I1
aI0
aI0
aI0
aI0
aI0
aI0
aI0
aI0
aI0
aI0
aI0
aI0
aI0
aI0
aI0
aI0
aI0
aI0
aI0
aI0
aI0
aI0
aI0
aI0
aI0
aI0
aI0
aI0
aI0
aI0
aI0
aI0
aI0
aI0
aI0
aI0
aI0
aI0
aI0
aI0
aI0
aI0
aI0
aI0
aI0
aI1
aI0
aI0
aI0
aI0
aI0
aI0
aI0
aI0
aI0
aI0
aI0
aI0
aI0
aI0
aI0
aI0
aI0
aa(lp134
I1
aI0
aI0
aI0
aI0
aI0
aI0
aI0
aI0
aI0
aI0
aI0
aI0
aI0
aI0
aI0
aI0
aI0
aI0
aI0
aI0
aI0
aI0
aI0
aI0
aI0
aI0
aI0
aI0
aI0
aI0
aI0
aI0
aI0
aI0
aI0
aI0
aI0
aI0
aI0
aI0
aI0
aI0
aI0
aI0
aI0
aI0
aI0
aI0
aI0
aI0
aI0
aI0
aI0
aI0
aI0
aI0
aI0
aI0
aI0
aI0
aI0
aI0
aI0
aI0
aI0
aI0
aI0
aI0
aI0
aI0
aI0
aI0
aI0
aI0
aI0
aI0
aI1
aI0
aa(lp135
I1
aI0
aI0
aI0
aI0
aI0
aI0
aI0
aI0
aI0
aI0
aI0
aI0
aI0
aI0
aI0
aI0
aI0
aI0
aI0
aI0
aI0
aI0
aI0
aI0
aI0
aI0
aI0
aI0
aI0
aI0
aI0
aI0
aI0
aI0
aI0
aI0
aI0
aI0
aI0
aI0
aI0
aI0
aI0
aI0
aI0
aI0
aI0
aI0
aI0
aI0
aI0
aI0
aI0
aI0
aI0
aI0
aI0
aI0
aI0
aI0
aI0
aI0
aI0
aI0
aI0
aI0
aI0
aI0
aI0
aI0
aI0
aI0
aI0
aI0
aI0
aI0
aI0
aI0
aI0
aI0
aI0
aI0
aI0
aI0
aI0
aI0
aI0
aI0
aI0
aI0
aI0
aI0
aI0
aI0
aI0
aI0
aa(lp136
I1
aI0
aI0
aI0
aI0
aI0
aI0
aI0
aI0
aI0
aI0
aI0
aI0
aI0
aI0
aI0
aI0
aI0
aI0
aI0
aI0
aI0
aI0
aI0
aI0
aI0
aI0
aI0
aI0
aI0
aI0
aI0
aI0
aI0
aI0
aI0
aI0
aI0
aI0
aI0
aI0
aI0
aI0
aI0
aI0
aI0
aI0
aI0
aI0
aI0
aI0
aI0
aI0
aI0
aI0
aa(lp137
I0
aI0
aI0
aI0
aI0
aI0
aI1
aI0
aI0
aI0
aI0
aI0
aI0
aI0
aI0
aI0
aI0
aI0
aI0
aI0
aI0
aI0
aI0
aI0
aI0
aI0
aI1
aI0
aI0
aI0
aI0
aI0
aI0
aI0
aI0
aI0
aI0
aI0
aI0
aI0
aI0
aI0
aI0
aI0
aI0
aI0
aI0
aass.